
InspireRV3.elf:     file format elf32-littleriscv
InspireRV3.elf
architecture: riscv:rv32, flags 0x00000112:
EXEC_P, HAS_SYMS, D_PAGED
start address 0x000000a0

Program Header:
    LOAD off    0x00001000 vaddr 0x00000000 paddr 0x00000000 align 2**12
         filesz 0x00003d08 memsz 0x00003d08 flags r-x
    LOAD off    0x00005000 vaddr 0x20000000 paddr 0x00003d08 align 2**12
         filesz 0x00000120 memsz 0x000004e8 flags rw-
    LOAD off    0x00005700 vaddr 0x20000700 paddr 0x20000700 align 2**12
         filesz 0x00000000 memsz 0x00000100 flags rw-

Sections:
Idx Name          Size      VMA       LMA       File off  Algn
  0 .init         00000140  00000000  00000000  00001000  2**2
                  CONTENTS, ALLOC, LOAD, READONLY, CODE
  1 .text         00003bc8  00000140  00000140  00001140  2**2
                  CONTENTS, ALLOC, LOAD, READONLY, CODE
  2 .fini         00000000  00003d08  00003d08  00005120  2**0
                  CONTENTS, ALLOC, LOAD, CODE
  3 .dalign       00000000  20000000  20000000  00005120  2**0
                  CONTENTS
  4 .dlalign      00000000  00003d08  00003d08  00005120  2**0
                  CONTENTS
  5 .data         00000120  20000000  00003d08  00005000  2**2
                  CONTENTS, ALLOC, LOAD, DATA
  6 .bss          000003c8  20000120  00003e28  00005120  2**2
                  ALLOC
  7 .stack        00000100  20000700  20000700  00005700  2**0
                  ALLOC
  8 .debug_info   00007156  00000000  00000000  00005120  2**0
                  CONTENTS, READONLY, DEBUGGING
  9 .debug_abbrev 00000d51  00000000  00000000  0000c276  2**0
                  CONTENTS, READONLY, DEBUGGING
 10 .debug_loc    00004d2c  00000000  00000000  0000cfc7  2**0
                  CONTENTS, READONLY, DEBUGGING
 11 .debug_aranges 000003b8  00000000  00000000  00011cf8  2**3
                  CONTENTS, READONLY, DEBUGGING
 12 .debug_ranges 000009b0  00000000  00000000  000120b0  2**3
                  CONTENTS, READONLY, DEBUGGING
 13 .debug_line   00007d26  00000000  00000000  00012a60  2**0
                  CONTENTS, READONLY, DEBUGGING
 14 .debug_str    00001744  00000000  00000000  0001a786  2**0
                  CONTENTS, READONLY, DEBUGGING
 15 .comment      00000033  00000000  00000000  0001beca  2**0
                  CONTENTS, READONLY
 16 .debug_frame  00000c50  00000000  00000000  0001bf00  2**2
                  CONTENTS, READONLY, DEBUGGING
SYMBOL TABLE:
00000000 l    d  .init	00000000 .init
00000140 l    d  .text	00000000 .text
00003d08 l    d  .fini	00000000 .fini
20000000 l    d  .dalign	00000000 .dalign
00003d08 l    d  .dlalign	00000000 .dlalign
20000000 l    d  .data	00000000 .data
20000120 l    d  .bss	00000000 .bss
20000700 l    d  .stack	00000000 .stack
00000000 l    d  .debug_info	00000000 .debug_info
00000000 l    d  .debug_abbrev	00000000 .debug_abbrev
00000000 l    d  .debug_loc	00000000 .debug_loc
00000000 l    d  .debug_aranges	00000000 .debug_aranges
00000000 l    d  .debug_ranges	00000000 .debug_ranges
00000000 l    d  .debug_line	00000000 .debug_line
00000000 l    d  .debug_str	00000000 .debug_str
00000000 l    d  .comment	00000000 .comment
00000000 l    d  .debug_frame	00000000 .debug_frame
00000000 l    df *ABS*	00000000 ch32v003fun.c
000001ea l     F .text	00000084 mini_pad
0000026e l     F .text	0000003e _puts
000002ac l     F .text	000000ba mini_itoa.part.0
0000067e l     F .text	00000012 __puts_uart
00000000 l    df *ABS*	00000000 main.c
0000073c l     F .text	0000001c i2c_chk_evt
00000758 l     F .text	000000a0 GPIO_ADCinit
000007f8 l     F .text	0000003a GPIO_analogRead
00000d0a l     F .text	00000028 clear
00000d32 l     F .text	00000022 fill_color.constprop.15
00001458 l     F .text	00000092 load_paint.part.11
000033bc l     O .text	00000008 CSWTCH.132
000033c4 l     O .text	0000000e CSWTCH.133
000033d4 l     O .text	00000100 buttons
00000000 l    df *ABS*	00000000 libgcc2.c
00000000 l    df *ABS*	00000000 libgcc2.c
00000d6a g     F .text	00000054 multiple_ADC_reads
000006ba g     F .text	0000001a putchar
000017e0 g     F .text	00000798 rvCodeRun
200003e8 g     O .bss	000000e0 opCodeStorage
00000bee g     F .text	00000068 i2c_read_pages
00003574 g     O .text	000000c0 colors
200004e4 g     O .bss	00000003 rvClearColor
000005d2 g     F .text	0000002a printf
20000920 g       .data	00000000 __global_pointer$
000003e4  w    F .text	00000002 TIM1_CC_IRQHandler
00002cc6 g     F .text	00000034 red_screen
000003e4  w    F .text	00000002 HardFault_Handler
00002cfa g     F .text	00000034 appRunningRoutine
000003e4  w    F .text	00000002 SysTick_Handler
0000248a g     F .text	00000128 choose_save_page
000003e4  w    F .text	00000002 PVD_IRQHandler
00000832 g     F .text	0000000a lower_half_ADC_channel
000029d4 g     F .text	0000005a displayColorPalette
000003e6  w    F .text	0000000e NMI_Handler
000008f2 g     F .text	00000116 i2c_write
000005fc g     F .text	0000005a SetupUART
20000008 g     O .data	00000003 foreground
2000000f g     O .data	00000001 pointerLocation
00000000 g     F .init	0000009c InterruptVectorDefault
20000120 g       .bss	00000000 _sbss
00000100 g       *ABS*	00000000 __stack_size
000011e6 g     F .text	00000044 is_storage_initialized
0000014a g     F .text	0000000a .hidden __riscv_restore_2
00000416 g     F .text	00000018 memcpy
00000000  w    F .init	0000009c InterruptVector
20000004 g     O .data	00000003 background
20000324 g     O .bss	00000002 i2c_err_flags
00000690 g     F .text	0000002a puts
00000174 g     F .text	0000002c .hidden __udivsi3
000025b2 g     F .text	00000422 rv_code_routine
00000140 g       .init	00000000 _einit
000003e4  w    F .text	00000002 SPI1_IRQHandler
00000140 g     F .text	0000000a .hidden __riscv_save_1
20000000 g     O .data	00000004 appChosen
00001650 g     F .text	000000ba save_paint
0000014a g     F .text	0000000a .hidden __riscv_restore_0
000003e4  w    F .text	00000002 AWU_IRQHandler
000003e4  w    F .text	00000002 EXTI7_0_IRQHandler
00000b86 g     F .text	00000068 i2c_write_pages
00001048 g     F .text	000000d6 WS2812BSimpleSend
00002a2e g     F .text	00000050 colorPaletteSelection
00000eec g     F .text	000000b8 matrix_pressed_two
000012b8 g     F .text	000000b4 print_status_storage
00002e00 g     F .text	000004f2 .hidden __udivdi3
000003e4  w    F .text	00000002 DMA1_Channel4_IRQHandler
000003e4  w    F .text	00000002 ADC1_IRQHandler
00003570 g     O .text	00000003 color_savefile_exist
000022ac g     F .text	000001de choose_load_page
200004e8 g       .bss	00000000 _ebss
000003e4  w    F .text	00000002 DMA1_Channel7_IRQHandler
200004c8 g     O .bss	0000001c opCodeToStored
00001180 g     F .text	0000001a varExtraction
000001a0 g     F .text	00000008 .hidden __umodsi3
00000d54 g     F .text	0000000c ADC_read_pad
000006d4 g     F .text	00000016 DelaySysTick
000003e4  w    F .text	00000002 I2C1_EV_IRQHandler
20000120 g     O .bss	00000200 canvas
000003e4  w    F .text	00000002 DMA1_Channel6_IRQHandler
20000014 g     O .data	00000003 rvPointerColor
00001f78 g     F .text	000000bc load_opCode
000003e4  w    F .text	00000002 RCC_IRQHandler
000003e4  w    F .text	00000002 TIM1_TRG_COM_IRQHandler
00000fa4 g     F .text	000000a4 JOY_sound
000003e4  w    F .text	00000002 DMA1_Channel1_IRQHandler
000000a0 g       .init	00000000 _start
20000010 g     O .data	00000003 rvPendownColor
00000154 g     F .text	00000014 .hidden __mulsi3
20000118 g     O .data	00000004 timeout_line_code
000021d2 g     F .text	000000da toCodingSpace
000017b0 g     F .text	00000030 load_paint
000014ea g     F .text	00000166 iconShow
00000dbe g     F .text	0000012e JOY_check_button
000003e4 g     F .text	00000002 DefaultIRQHandler
20000000 g       .dalign	00000000 _data_vma
0000083c g     F .text	0000000a upper_half_ADC_channel
000003e6 g     F .text	0000000e NMI_RCC_CSS_IRQHandler
00001130 g     F .text	00000050 opCodeExtraction
0000042e g     F .text	000001a4 mini_vpprintf
00000406 g     F .text	00000010 memset
00002d2e g     F .text	000000d2 main
20000320 g     O .bss	00000003 clearground
2000000b g     O .data	00000001 ledDivider
00000a08 g     F .text	0000017e i2c_read
20000018 g     O .data	00000100 rv_coding_board
2000000c g     O .data	00000003 pageground
000003e4  w    F .text	00000002 DMA1_Channel5_IRQHandler
0000016c g     F .text	00000058 .hidden __divsi3
00002190 g     F .text	00000042 flushCanvas
0000143e g     F .text	0000001a calculate_page_no
000006ea g     F .text	00000052 SystemInit
0000170a g     F .text	000000a6 save_opCode
00003c08 g     O .text	00000100 .hidden __clz_tab
00000000 g       .init	00000000 _sinit
0000111e g     F .text	00000012 opGroupExtraction
000003e4  w    F .text	00000002 DMA1_Channel3_IRQHandler
00002100 g     F .text	00000090 erase_all_paint_saves
00000c56 g     F .text	000000b4 set_color
000003e4  w    F .text	00000002 TIM1_UP_IRQHandler
00000892 g     F .text	00000060 i2c_init
000003e4  w    F .text	00000002 WWDG_IRQHandler
000003e4  w    F .text	00000002 TIM2_IRQHandler
20000800 g       .stack	00000000 _eusrstack
00000140 g     F .text	0000000a .hidden __riscv_save_2
000003e4  w    F .text	00000002 SW_Handler
20000007 g     O .data	00000001 currentPage
000003e4  w    F .text	00000002 TIM1_BRK_IRQHandler
00000656 g     F .text	00000028 _write
20000120 g       .data	00000000 _edata
0000119a g     F .text	0000004c logoDisplay
00003d08 g       .dlalign	00000000 _data_lma
000013ec g     F .text	00000052 is_page_used
0000136c g     F .text	00000080 set_page_status
000001c4 g     F .text	00000024 .hidden __modsi3
000003e4  w    F .text	00000002 DMA1_Channel2_IRQHandler
0000122a g     F .text	0000006a reset_storage
00001294 g     F .text	00000024 init_storage
00000366 g     F .text	0000007e handle_reset
2000011c g     O .data	00000004 timeout_var_code
00000140 g     F .text	0000000a .hidden __riscv_save_0
000003e4  w    F .text	00000002 FLASH_IRQHandler
00000d60 g     F .text	0000000a ADC_read_smallboard
00002a7e g     F .text	00000248 painting_routine
0000356c g     O .text	00000003 color_savefile_empty
000003e4  w    F .text	00000002 USART1_IRQHandler
000003f4 g     F .text	00000012 strlen
000003e4  w    F .text	00000002 I2C1_ER_IRQHandler
00000846 g     F .text	0000004c i2c_setup
0000014a g     F .text	0000000a .hidden __riscv_restore_1
20000328 g     O .bss	000000c0 led_array
00002034 g     F .text	000000cc led_display_paint_page_status



Disassembly of section .init:

00000000 <InterruptVectorDefault>:
   0:	3660006f          	j	366 <handle_reset>
   4:	0000                	unimp
   6:	0000                	unimp
   8:	03e6                	slli	t2,t2,0x19
   a:	0000                	unimp
   c:	03e4                	addi	s1,sp,460
	...
  2e:	0000                	unimp
  30:	03e4                	addi	s1,sp,460
  32:	0000                	unimp
  34:	0000                	unimp
  36:	0000                	unimp
  38:	03e4                	addi	s1,sp,460
  3a:	0000                	unimp
  3c:	0000                	unimp
  3e:	0000                	unimp
  40:	03e4                	addi	s1,sp,460
  42:	0000                	unimp
  44:	03e4                	addi	s1,sp,460
  46:	0000                	unimp
  48:	03e4                	addi	s1,sp,460
  4a:	0000                	unimp
  4c:	03e4                	addi	s1,sp,460
  4e:	0000                	unimp
  50:	03e4                	addi	s1,sp,460
  52:	0000                	unimp
  54:	03e4                	addi	s1,sp,460
  56:	0000                	unimp
  58:	03e4                	addi	s1,sp,460
  5a:	0000                	unimp
  5c:	03e4                	addi	s1,sp,460
  5e:	0000                	unimp
  60:	03e4                	addi	s1,sp,460
  62:	0000                	unimp
  64:	03e4                	addi	s1,sp,460
  66:	0000                	unimp
  68:	03e4                	addi	s1,sp,460
  6a:	0000                	unimp
  6c:	03e4                	addi	s1,sp,460
  6e:	0000                	unimp
  70:	03e4                	addi	s1,sp,460
  72:	0000                	unimp
  74:	03e4                	addi	s1,sp,460
  76:	0000                	unimp
  78:	03e4                	addi	s1,sp,460
  7a:	0000                	unimp
  7c:	03e4                	addi	s1,sp,460
  7e:	0000                	unimp
  80:	03e4                	addi	s1,sp,460
  82:	0000                	unimp
  84:	03e4                	addi	s1,sp,460
  86:	0000                	unimp
  88:	03e4                	addi	s1,sp,460
  8a:	0000                	unimp
  8c:	03e4                	addi	s1,sp,460
  8e:	0000                	unimp
  90:	03e4                	addi	s1,sp,460
  92:	0000                	unimp
  94:	03e4                	addi	s1,sp,460
  96:	0000                	unimp
  98:	03e4                	addi	s1,sp,460
  9a:	0000                	unimp
  9c:	0000                	unimp
	...

000000a0 <_start>:
  a0:	2c60006f          	j	366 <handle_reset>
  a4:	0000                	unimp
  a6:	0000                	unimp
  a8:	03e6                	slli	t2,t2,0x19
  aa:	0000                	unimp
  ac:	03e4                	addi	s1,sp,460
	...
  ce:	0000                	unimp
  d0:	03e4                	addi	s1,sp,460
  d2:	0000                	unimp
  d4:	0000                	unimp
  d6:	0000                	unimp
  d8:	03e4                	addi	s1,sp,460
  da:	0000                	unimp
  dc:	0000                	unimp
  de:	0000                	unimp
  e0:	03e4                	addi	s1,sp,460
  e2:	0000                	unimp
  e4:	03e4                	addi	s1,sp,460
  e6:	0000                	unimp
  e8:	03e4                	addi	s1,sp,460
  ea:	0000                	unimp
  ec:	03e4                	addi	s1,sp,460
  ee:	0000                	unimp
  f0:	03e4                	addi	s1,sp,460
  f2:	0000                	unimp
  f4:	03e4                	addi	s1,sp,460
  f6:	0000                	unimp
  f8:	03e4                	addi	s1,sp,460
  fa:	0000                	unimp
  fc:	03e4                	addi	s1,sp,460
  fe:	0000                	unimp
 100:	03e4                	addi	s1,sp,460
 102:	0000                	unimp
 104:	03e4                	addi	s1,sp,460
 106:	0000                	unimp
 108:	03e4                	addi	s1,sp,460
 10a:	0000                	unimp
 10c:	03e4                	addi	s1,sp,460
 10e:	0000                	unimp
 110:	03e4                	addi	s1,sp,460
 112:	0000                	unimp
 114:	03e4                	addi	s1,sp,460
 116:	0000                	unimp
 118:	03e4                	addi	s1,sp,460
 11a:	0000                	unimp
 11c:	03e4                	addi	s1,sp,460
 11e:	0000                	unimp
 120:	03e4                	addi	s1,sp,460
 122:	0000                	unimp
 124:	03e4                	addi	s1,sp,460
 126:	0000                	unimp
 128:	03e4                	addi	s1,sp,460
 12a:	0000                	unimp
 12c:	03e4                	addi	s1,sp,460
 12e:	0000                	unimp
 130:	03e4                	addi	s1,sp,460
 132:	0000                	unimp
 134:	03e4                	addi	s1,sp,460
 136:	0000                	unimp
 138:	03e4                	addi	s1,sp,460
 13a:	0000                	unimp
 13c:	0000                	unimp
	...

Disassembly of section .text:

00000140 <__riscv_save_0>:
     140:	1151                	addi	sp,sp,-12
     142:	c026                	sw	s1,0(sp)
     144:	c222                	sw	s0,4(sp)
     146:	c406                	sw	ra,8(sp)
     148:	8282                	jr	t0

0000014a <__riscv_restore_0>:
     14a:	4482                	lw	s1,0(sp)
     14c:	4412                	lw	s0,4(sp)
     14e:	40a2                	lw	ra,8(sp)
     150:	0131                	addi	sp,sp,12
     152:	8082                	ret

00000154 <__mulsi3>:
     154:	862a                	mv	a2,a0
     156:	4501                	li	a0,0
     158:	0015f693          	andi	a3,a1,1
     15c:	c291                	beqz	a3,160 <__mulsi3+0xc>
     15e:	9532                	add	a0,a0,a2
     160:	8185                	srli	a1,a1,0x1
     162:	0606                	slli	a2,a2,0x1
     164:	f9f5                	bnez	a1,158 <__mulsi3+0x4>
     166:	8082                	ret
     168:	0000                	unimp
	...

0000016c <__divsi3>:
     16c:	02054e63          	bltz	a0,1a8 <__umodsi3+0x8>
     170:	0405c363          	bltz	a1,1b6 <__umodsi3+0x16>

00000174 <__udivsi3>:
     174:	862e                	mv	a2,a1
     176:	85aa                	mv	a1,a0
     178:	557d                	li	a0,-1
     17a:	c215                	beqz	a2,19e <__udivsi3+0x2a>
     17c:	4685                	li	a3,1
     17e:	00b67863          	bgeu	a2,a1,18e <__udivsi3+0x1a>
     182:	00c05663          	blez	a2,18e <__udivsi3+0x1a>
     186:	0606                	slli	a2,a2,0x1
     188:	0686                	slli	a3,a3,0x1
     18a:	feb66ce3          	bltu	a2,a1,182 <__udivsi3+0xe>
     18e:	4501                	li	a0,0
     190:	00c5e463          	bltu	a1,a2,198 <__udivsi3+0x24>
     194:	8d91                	sub	a1,a1,a2
     196:	8d55                	or	a0,a0,a3
     198:	8285                	srli	a3,a3,0x1
     19a:	8205                	srli	a2,a2,0x1
     19c:	faf5                	bnez	a3,190 <__udivsi3+0x1c>
     19e:	8082                	ret

000001a0 <__umodsi3>:
     1a0:	8286                	mv	t0,ra
     1a2:	3fc9                	jal	174 <__udivsi3>
     1a4:	852e                	mv	a0,a1
     1a6:	8282                	jr	t0
     1a8:	40a00533          	neg	a0,a0
     1ac:	0005d763          	bgez	a1,1ba <__umodsi3+0x1a>
     1b0:	40b005b3          	neg	a1,a1
     1b4:	b7c1                	j	174 <__udivsi3>
     1b6:	40b005b3          	neg	a1,a1
     1ba:	8286                	mv	t0,ra
     1bc:	3f65                	jal	174 <__udivsi3>
     1be:	40a00533          	neg	a0,a0
     1c2:	8282                	jr	t0

000001c4 <__modsi3>:
     1c4:	8286                	mv	t0,ra
     1c6:	0005c763          	bltz	a1,1d4 <__modsi3+0x10>
     1ca:	00054963          	bltz	a0,1dc <__modsi3+0x18>
     1ce:	375d                	jal	174 <__udivsi3>
     1d0:	852e                	mv	a0,a1
     1d2:	8282                	jr	t0
     1d4:	40b005b3          	neg	a1,a1
     1d8:	fe055be3          	bgez	a0,1ce <__modsi3+0xa>
     1dc:	40a00533          	neg	a0,a0
     1e0:	3f51                	jal	174 <__udivsi3>
     1e2:	40b00533          	neg	a0,a1
     1e6:	8282                	jr	t0
	...

000001ea <mini_pad>:
     1ea:	4301                	li	t1,0
     1ec:	c2ad                	beqz	a3,24e <mini_pad+0x64>
     1ee:	00b6d463          	bge	a3,a1,1f6 <mini_pad+0xc>
     1f2:	85b6                	mv	a1,a3
     1f4:	4305                	li	t1,1
     1f6:	8e8d                	sub	a3,a3,a1
     1f8:	87ba                	mv	a5,a4
     1fa:	00d703b3          	add	t2,a4,a3
     1fe:	40f382b3          	sub	t0,t2,a5
     202:	04504863          	bgtz	t0,252 <mini_pad+0x68>
     206:	0006d363          	bgez	a3,20c <mini_pad+0x22>
     20a:	4681                	li	a3,0
     20c:	96ba                	add	a3,a3,a4
     20e:	4781                	li	a5,0
     210:	40f58633          	sub	a2,a1,a5
     214:	04c04363          	bgtz	a2,25a <mini_pad+0x70>
     218:	0005d363          	bgez	a1,21e <mini_pad+0x34>
     21c:	4581                	li	a1,0
     21e:	95b6                	add	a1,a1,a3
     220:	40e58533          	sub	a0,a1,a4
     224:	02030463          	beqz	t1,24c <mini_pad+0x62>
     228:	02b77263          	bgeu	a4,a1,24c <mini_pad+0x62>
     22c:	02a00793          	li	a5,42
     230:	fef58fa3          	sb	a5,-1(a1)
     234:	fff58693          	addi	a3,a1,-1
     238:	00d77a63          	bgeu	a4,a3,24c <mini_pad+0x62>
     23c:	fef58f23          	sb	a5,-2(a1)
     240:	ffe58693          	addi	a3,a1,-2
     244:	00d77463          	bgeu	a4,a3,24c <mini_pad+0x62>
     248:	fef58ea3          	sb	a5,-3(a1)
     24c:	8082                	ret
     24e:	86ae                	mv	a3,a1
     250:	b75d                	j	1f6 <mini_pad+0xc>
     252:	0785                	addi	a5,a5,1
     254:	fec78fa3          	sb	a2,-1(a5)
     258:	b75d                	j	1fe <mini_pad+0x14>
     25a:	00f50633          	add	a2,a0,a5
     25e:	00060283          	lb	t0,0(a2)
     262:	00f68633          	add	a2,a3,a5
     266:	0785                	addi	a5,a5,1
     268:	00560023          	sb	t0,0(a2)
     26c:	b755                	j	210 <mini_pad+0x26>

0000026e <_puts>:
     26e:	ce01                	beqz	a2,286 <_puts+0x18>
     270:	00062283          	lw	t0,0(a2)
     274:	4701                	li	a4,0
     276:	425c                	lw	a5,4(a2)
     278:	00b74963          	blt	a4,a1,28a <_puts+0x1c>
     27c:	00078023          	sb	zero,0(a5)
     280:	424c                	lw	a1,4(a2)
     282:	405585b3          	sub	a1,a1,t0
     286:	852e                	mv	a0,a1
     288:	8082                	ret
     28a:	4614                	lw	a3,8(a2)
     28c:	fff68313          	addi	t1,a3,-1
     290:	4214                	lw	a3,0(a2)
     292:	969a                	add	a3,a3,t1
     294:	fed784e3          	beq	a5,a3,27c <_puts+0xe>
     298:	00178693          	addi	a3,a5,1
     29c:	c254                	sw	a3,4(a2)
     29e:	00e506b3          	add	a3,a0,a4
     2a2:	00068683          	lb	a3,0(a3)
     2a6:	0705                	addi	a4,a4,1
     2a8:	a394                	sb	a3,0(a5)
     2aa:	b7f1                	j	276 <_puts+0x8>

000002ac <mini_itoa.part.0>:
     2ac:	e95ff2ef          	jal	t0,140 <__riscv_save_0>
     2b0:	1131                	addi	sp,sp,-20
     2b2:	c002                	sw	zero,0(sp)
     2b4:	832a                	mv	t1,a0
     2b6:	82ae                	mv	t0,a1
     2b8:	00055763          	bgez	a0,2c6 <mini_itoa.part.0+0x1a>
     2bc:	e689                	bnez	a3,2c6 <mini_itoa.part.0+0x1a>
     2be:	4785                	li	a5,1
     2c0:	40a00333          	neg	t1,a0
     2c4:	c03e                	sw	a5,0(sp)
     2c6:	06100413          	li	s0,97
     2ca:	c219                	beqz	a2,2d0 <mini_itoa.part.0+0x24>
     2cc:	04100413          	li	s0,65
     2d0:	84ba                	mv	s1,a4
     2d2:	1459                	addi	s0,s0,-10
     2d4:	8596                	mv	a1,t0
     2d6:	851a                	mv	a0,t1
     2d8:	c83a                	sw	a4,16(sp)
     2da:	c21a                	sw	t1,4(sp)
     2dc:	c616                	sw	t0,12(sp)
     2de:	c41a                	sw	t1,8(sp)
     2e0:	35c1                	jal	1a0 <__umodsi3>
     2e2:	46a5                	li	a3,9
     2e4:	0ff57793          	andi	a5,a0,255
     2e8:	4322                	lw	t1,8(sp)
     2ea:	42b2                	lw	t0,12(sp)
     2ec:	4742                	lw	a4,16(sp)
     2ee:	04a6ee63          	bltu	a3,a0,34a <mini_itoa.part.0+0x9e>
     2f2:	03078793          	addi	a5,a5,48
     2f6:	01879693          	slli	a3,a5,0x18
     2fa:	86e1                	srai	a3,a3,0x18
     2fc:	00148793          	addi	a5,s1,1
     300:	a094                	sb	a3,0(s1)
     302:	8596                	mv	a1,t0
     304:	851a                	mv	a0,t1
     306:	c83a                	sw	a4,16(sp)
     308:	c63e                	sw	a5,12(sp)
     30a:	c416                	sw	t0,8(sp)
     30c:	35a5                	jal	174 <__udivsi3>
     30e:	4692                	lw	a3,4(sp)
     310:	42a2                	lw	t0,8(sp)
     312:	832a                	mv	t1,a0
     314:	47b2                	lw	a5,12(sp)
     316:	4742                	lw	a4,16(sp)
     318:	0256f763          	bgeu	a3,t0,346 <mini_itoa.part.0+0x9a>
     31c:	4682                	lw	a3,0(sp)
     31e:	c691                	beqz	a3,32a <mini_itoa.part.0+0x7e>
     320:	02d00693          	li	a3,45
     324:	a394                	sb	a3,0(a5)
     326:	00248793          	addi	a5,s1,2
     32a:	40e78533          	sub	a0,a5,a4
     32e:	01f55693          	srli	a3,a0,0x1f
     332:	96aa                	add	a3,a3,a0
     334:	00078023          	sb	zero,0(a5)
     338:	8685                	srai	a3,a3,0x1
     33a:	4601                	li	a2,0
     33c:	17fd                	addi	a5,a5,-1
     33e:	00d64863          	blt	a2,a3,34e <mini_itoa.part.0+0xa2>
     342:	0151                	addi	sp,sp,20
     344:	b519                	j	14a <__riscv_restore_0>
     346:	84be                	mv	s1,a5
     348:	b771                	j	2d4 <mini_itoa.part.0+0x28>
     34a:	97a2                	add	a5,a5,s0
     34c:	b76d                	j	2f6 <mini_itoa.part.0+0x4a>
     34e:	00c705b3          	add	a1,a4,a2
     352:	00078283          	lb	t0,0(a5)
     356:	00058303          	lb	t1,0(a1)
     35a:	0605                	addi	a2,a2,1
     35c:	00558023          	sb	t0,0(a1)
     360:	00678023          	sb	t1,0(a5)
     364:	bfe1                	j	33c <mini_itoa.part.0+0x90>

00000366 <handle_reset>:
     366:	20000197          	auipc	gp,0x20000
     36a:	5ba18193          	addi	gp,gp,1466 # 20000920 <__global_pointer$>
     36e:	ee018113          	addi	sp,gp,-288 # 20000800 <_eusrstack>
     372:	08000513          	li	a0,128
     376:	30051073          	csrw	mstatus,a0
     37a:	468d                	li	a3,3
     37c:	00000517          	auipc	a0,0x0
     380:	c8450513          	addi	a0,a0,-892 # 0 <InterruptVectorDefault>
     384:	8d55                	or	a0,a0,a3
     386:	30551073          	csrw	mtvec,a0
     38a:	20000517          	auipc	a0,0x20000
     38e:	d9650513          	addi	a0,a0,-618 # 20000120 <_edata>
     392:	bc818593          	addi	a1,gp,-1080 # 200004e8 <_ebss>
     396:	4601                	li	a2,0
     398:	00b55663          	bge	a0,a1,3a4 <handle_reset+0x3e>
     39c:	c110                	sw	a2,0(a0)
     39e:	0511                	addi	a0,a0,4
     3a0:	feb54ee3          	blt	a0,a1,39c <handle_reset+0x36>
     3a4:	00004517          	auipc	a0,0x4
     3a8:	96450513          	addi	a0,a0,-1692 # 3d08 <_data_lma>
     3ac:	20000597          	auipc	a1,0x20000
     3b0:	c5458593          	addi	a1,a1,-940 # 20000000 <_data_vma>
     3b4:	20000617          	auipc	a2,0x20000
     3b8:	d6c60613          	addi	a2,a2,-660 # 20000120 <_edata>
     3bc:	00c58863          	beq	a1,a2,3cc <handle_reset+0x66>
     3c0:	4114                	lw	a3,0(a0)
     3c2:	c194                	sw	a3,0(a1)
     3c4:	0511                	addi	a0,a0,4
     3c6:	0591                	addi	a1,a1,4
     3c8:	fec59ae3          	bne	a1,a2,3bc <handle_reset+0x56>
     3cc:	e000f7b7          	lui	a5,0xe000f
     3d0:	4715                	li	a4,5
     3d2:	c398                	sw	a4,0(a5)
     3d4:	000037b7          	lui	a5,0x3
     3d8:	d2e78793          	addi	a5,a5,-722 # 2d2e <main>
     3dc:	34179073          	csrw	mepc,a5
     3e0:	30200073          	mret

000003e4 <DefaultIRQHandler>:
     3e4:	a001                	j	3e4 <DefaultIRQHandler>

000003e6 <NMI_RCC_CSS_IRQHandler>:
     3e6:	40021737          	lui	a4,0x40021
     3ea:	471c                	lw	a5,8(a4)
     3ec:	008006b7          	lui	a3,0x800
     3f0:	8fd5                	or	a5,a5,a3
     3f2:	c71c                	sw	a5,8(a4)

000003f4 <strlen>:
     3f4:	87aa                	mv	a5,a0
     3f6:	00078703          	lb	a4,0(a5)
     3fa:	e701                	bnez	a4,402 <strlen+0xe>
     3fc:	40a78533          	sub	a0,a5,a0
     400:	8082                	ret
     402:	0785                	addi	a5,a5,1
     404:	bfcd                	j	3f6 <strlen+0x2>

00000406 <memset>:
     406:	962a                	add	a2,a2,a0
     408:	87aa                	mv	a5,a0
     40a:	00c79363          	bne	a5,a2,410 <memset+0xa>
     40e:	8082                	ret
     410:	a38c                	sb	a1,0(a5)
     412:	0785                	addi	a5,a5,1
     414:	bfdd                	j	40a <memset+0x4>

00000416 <memcpy>:
     416:	4781                	li	a5,0
     418:	00f61363          	bne	a2,a5,41e <memcpy+0x8>
     41c:	8082                	ret
     41e:	00f58733          	add	a4,a1,a5
     422:	2314                	lbu	a3,0(a4)
     424:	00f50733          	add	a4,a0,a5
     428:	0785                	addi	a5,a5,1
     42a:	a314                	sb	a3,0(a4)
     42c:	b7f5                	j	418 <memcpy+0x2>

0000042e <mini_vpprintf>:
     42e:	d13ff2ef          	jal	t0,140 <__riscv_save_0>
     432:	715d                	addi	sp,sp,-80
     434:	c02e                	sw	a1,0(sp)
     436:	8432                	mv	s0,a2
     438:	87b6                	mv	a5,a3
     43a:	84aa                	mv	s1,a0
     43c:	e511                	bnez	a0,448 <mini_vpprintf+0x1a>
     43e:	00000737          	lui	a4,0x0
     442:	c002                	sw	zero,0(sp)
     444:	26e70493          	addi	s1,a4,622 # 26e <_puts>
     448:	c802                	sw	zero,16(sp)
     44a:	00040703          	lb	a4,0(s0)
     44e:	00140313          	addi	t1,s0,1
     452:	00e10fa3          	sb	a4,31(sp)
     456:	c75d                	beqz	a4,504 <mini_vpprintf+0xd6>
     458:	c41a                	sw	t1,8(sp)
     45a:	02500693          	li	a3,37
     45e:	00d70f63          	beq	a4,a3,47c <mini_vpprintf+0x4e>
     462:	4602                	lw	a2,0(sp)
     464:	4585                	li	a1,1
     466:	01f10513          	addi	a0,sp,31
     46a:	c23e                	sw	a5,4(sp)
     46c:	9482                	jalr	s1
     46e:	4322                	lw	t1,8(sp)
     470:	841a                	mv	s0,t1
     472:	47c2                	lw	a5,16(sp)
     474:	97aa                	add	a5,a5,a0
     476:	c83e                	sw	a5,16(sp)
     478:	4792                	lw	a5,4(sp)
     47a:	bfc1                	j	44a <mini_vpprintf+0x1c>
     47c:	00140683          	lb	a3,1(s0)
     480:	03000593          	li	a1,48
     484:	03000613          	li	a2,48
     488:	00d10fa3          	sb	a3,31(sp)
     48c:	c62e                	sw	a1,12(sp)
     48e:	00240713          	addi	a4,s0,2
     492:	06c69c63          	bne	a3,a2,50a <mini_vpprintf+0xdc>
     496:	843a                	mv	s0,a4
     498:	4601                	li	a2,0
     49a:	4701                	li	a4,0
     49c:	4525                	li	a0,9
     49e:	a811                	j	4b2 <mini_vpprintf+0x84>
     4a0:	00271693          	slli	a3,a4,0x2
     4a4:	0405                	addi	s0,s0,1
     4a6:	9736                	add	a4,a4,a3
     4a8:	fff40683          	lb	a3,-1(s0)
     4ac:	0706                	slli	a4,a4,0x1
     4ae:	972e                	add	a4,a4,a1
     4b0:	4605                	li	a2,1
     4b2:	fd068593          	addi	a1,a3,-48 # 7fffd0 <_data_lma+0x7fc2c8>
     4b6:	0ff5f313          	andi	t1,a1,255
     4ba:	fe6573e3          	bgeu	a0,t1,4a0 <mini_vpprintf+0x72>
     4be:	c219                	beqz	a2,4c4 <mini_vpprintf+0x96>
     4c0:	00d10fa3          	sb	a3,31(sp)
     4c4:	c43a                	sw	a4,8(sp)
     4c6:	4661                	li	a2,24
     4c8:	00e65363          	bge	a2,a4,4ce <mini_vpprintf+0xa0>
     4cc:	c432                	sw	a2,8(sp)
     4ce:	06c00613          	li	a2,108
     4d2:	4581                	li	a1,0
     4d4:	00c69763          	bne	a3,a2,4e2 <mini_vpprintf+0xb4>
     4d8:	2014                	lbu	a3,0(s0)
     4da:	4585                	li	a1,1
     4dc:	0405                	addi	s0,s0,1
     4de:	00d10fa3          	sb	a3,31(sp)
     4e2:	01f10683          	lb	a3,31(sp)
     4e6:	06400613          	li	a2,100
     4ea:	06c68163          	beq	a3,a2,54c <mini_vpprintf+0x11e>
     4ee:	02d64263          	blt	a2,a3,512 <mini_vpprintf+0xe4>
     4f2:	05800713          	li	a4,88
     4f6:	08e68d63          	beq	a3,a4,590 <mini_vpprintf+0x162>
     4fa:	06300713          	li	a4,99
     4fe:	0ae68463          	beq	a3,a4,5a6 <mini_vpprintf+0x178>
     502:	e2f1                	bnez	a3,5c6 <mini_vpprintf+0x198>
     504:	4542                	lw	a0,16(sp)
     506:	6161                	addi	sp,sp,80
     508:	b189                	j	14a <__riscv_restore_0>
     50a:	02000613          	li	a2,32
     50e:	c632                	sw	a2,12(sp)
     510:	b759                	j	496 <mini_vpprintf+0x68>
     512:	07500613          	li	a2,117
     516:	02c68b63          	beq	a3,a2,54c <mini_vpprintf+0x11e>
     51a:	07800613          	li	a2,120
     51e:	06c68963          	beq	a3,a2,590 <mini_vpprintf+0x162>
     522:	07300613          	li	a2,115
     526:	0ac69063          	bne	a3,a2,5c6 <mini_vpprintf+0x198>
     52a:	cc3a                	sw	a4,24(sp)
     52c:	00478713          	addi	a4,a5,4
     530:	439c                	lw	a5,0(a5)
     532:	c23a                	sw	a4,4(sp)
     534:	853e                	mv	a0,a5
     536:	ca3e                	sw	a5,20(sp)
     538:	3d75                	jal	3f4 <strlen>
     53a:	4762                	lw	a4,24(sp)
     53c:	85aa                	mv	a1,a0
     53e:	47d2                	lw	a5,20(sp)
     540:	c341                	beqz	a4,5c0 <mini_vpprintf+0x192>
     542:	1018                	addi	a4,sp,32
     544:	46a2                	lw	a3,8(sp)
     546:	4632                	lw	a2,12(sp)
     548:	853e                	mv	a0,a5
     54a:	a01d                	j	570 <mini_vpprintf+0x142>
     54c:	00478713          	addi	a4,a5,4
     550:	c23a                	sw	a4,4(sp)
     552:	c58d                	beqz	a1,57c <mini_vpprintf+0x14e>
     554:	f8b68693          	addi	a3,a3,-117
     558:	1838                	addi	a4,sp,56
     55a:	0016b693          	seqz	a3,a3
     55e:	4601                	li	a2,0
     560:	45a9                	li	a1,10
     562:	4388                	lw	a0,0(a5)
     564:	33a1                	jal	2ac <mini_itoa.part.0>
     566:	46a2                	lw	a3,8(sp)
     568:	4632                	lw	a2,12(sp)
     56a:	85aa                	mv	a1,a0
     56c:	1018                	addi	a4,sp,32
     56e:	1828                	addi	a0,sp,56
     570:	39ad                	jal	1ea <mini_pad>
     572:	4602                	lw	a2,0(sp)
     574:	85aa                	mv	a1,a0
     576:	1008                	addi	a0,sp,32
     578:	9482                	jalr	s1
     57a:	bde5                	j	472 <mini_vpprintf+0x44>
     57c:	07500713          	li	a4,117
     580:	00e69563          	bne	a3,a4,58a <mini_vpprintf+0x15c>
     584:	1838                	addi	a4,sp,56
     586:	4685                	li	a3,1
     588:	bfd9                	j	55e <mini_vpprintf+0x130>
     58a:	1838                	addi	a4,sp,56
     58c:	4681                	li	a3,0
     58e:	bfc1                	j	55e <mini_vpprintf+0x130>
     590:	fa868693          	addi	a3,a3,-88
     594:	00478713          	addi	a4,a5,4
     598:	0016b613          	seqz	a2,a3
     59c:	c23a                	sw	a4,4(sp)
     59e:	4685                	li	a3,1
     5a0:	1838                	addi	a4,sp,56
     5a2:	45c1                	li	a1,16
     5a4:	bf7d                	j	562 <mini_vpprintf+0x134>
     5a6:	00478713          	addi	a4,a5,4
     5aa:	439c                	lw	a5,0(a5)
     5ac:	c23a                	sw	a4,4(sp)
     5ae:	46a2                	lw	a3,8(sp)
     5b0:	00f10fa3          	sb	a5,31(sp)
     5b4:	1018                	addi	a4,sp,32
     5b6:	4632                	lw	a2,12(sp)
     5b8:	4585                	li	a1,1
     5ba:	01f10513          	addi	a0,sp,31
     5be:	bf4d                	j	570 <mini_vpprintf+0x142>
     5c0:	4602                	lw	a2,0(sp)
     5c2:	853e                	mv	a0,a5
     5c4:	bf55                	j	578 <mini_vpprintf+0x14a>
     5c6:	c23e                	sw	a5,4(sp)
     5c8:	4602                	lw	a2,0(sp)
     5ca:	4585                	li	a1,1
     5cc:	01f10513          	addi	a0,sp,31
     5d0:	b765                	j	578 <mini_vpprintf+0x14a>

000005d2 <printf>:
     5d2:	fdc10113          	addi	sp,sp,-36
     5d6:	ca32                	sw	a2,20(sp)
     5d8:	862a                	mv	a2,a0
     5da:	00000537          	lui	a0,0x0
     5de:	c82e                	sw	a1,16(sp)
     5e0:	cc36                	sw	a3,24(sp)
     5e2:	4581                	li	a1,0
     5e4:	0814                	addi	a3,sp,16
     5e6:	67e50513          	addi	a0,a0,1662 # 67e <__puts_uart>
     5ea:	c606                	sw	ra,12(sp)
     5ec:	ce3a                	sw	a4,28(sp)
     5ee:	d03e                	sw	a5,32(sp)
     5f0:	c036                	sw	a3,0(sp)
     5f2:	3d35                	jal	42e <mini_vpprintf>
     5f4:	40b2                	lw	ra,12(sp)
     5f6:	02410113          	addi	sp,sp,36
     5fa:	8082                	ret

000005fc <SetupUART>:
     5fc:	400216b7          	lui	a3,0x40021
     600:	4e9c                	lw	a5,24(a3)
     602:	6711                	lui	a4,0x4
     604:	02070713          	addi	a4,a4,32 # 4020 <_data_lma+0x318>
     608:	8fd9                	or	a5,a5,a4
     60a:	ce9c                	sw	a5,24(a3)
     60c:	400117b7          	lui	a5,0x40011
     610:	4007a703          	lw	a4,1024(a5) # 40011400 <__global_pointer$+0x20010ae0>
     614:	ff1006b7          	lui	a3,0xff100
     618:	16fd                	addi	a3,a3,-1
     61a:	8f75                	and	a4,a4,a3
     61c:	40e7a023          	sw	a4,1024(a5)
     620:	4007a703          	lw	a4,1024(a5)
     624:	009006b7          	lui	a3,0x900
     628:	0542                	slli	a0,a0,0x10
     62a:	8f55                	or	a4,a4,a3
     62c:	40e7a023          	sw	a4,1024(a5)
     630:	400147b7          	lui	a5,0x40014
     634:	4721                	li	a4,8
     636:	80e79623          	sh	a4,-2036(a5) # 4001380c <__global_pointer$+0x20012eec>
     63a:	80079823          	sh	zero,-2032(a5)
     63e:	80079a23          	sh	zero,-2028(a5)
     642:	8141                	srli	a0,a0,0x10
     644:	80a79423          	sh	a0,-2040(a5)
     648:	80c7d703          	lhu	a4,-2036(a5)
     64c:	6689                	lui	a3,0x2
     64e:	8f55                	or	a4,a4,a3
     650:	80e79623          	sh	a4,-2036(a5)
     654:	8082                	ret

00000656 <_write>:
     656:	4781                	li	a5,0
     658:	400146b7          	lui	a3,0x40014
     65c:	00c7c463          	blt	a5,a2,664 <_write+0xe>
     660:	8532                	mv	a0,a2
     662:	8082                	ret
     664:	8006d703          	lhu	a4,-2048(a3) # 40013800 <__global_pointer$+0x20012ee0>
     668:	04077713          	andi	a4,a4,64
     66c:	df65                	beqz	a4,664 <_write+0xe>
     66e:	00f58733          	add	a4,a1,a5
     672:	00070703          	lb	a4,0(a4)
     676:	0785                	addi	a5,a5,1
     678:	80e69223          	sh	a4,-2044(a3)
     67c:	b7c5                	j	65c <_write+0x6>

0000067e <__puts_uart>:
     67e:	ac3ff2ef          	jal	t0,140 <__riscv_save_0>
     682:	842e                	mv	s0,a1
     684:	862e                	mv	a2,a1
     686:	85aa                	mv	a1,a0
     688:	4501                	li	a0,0
     68a:	37f1                	jal	656 <_write>
     68c:	8522                	mv	a0,s0
     68e:	bc75                	j	14a <__riscv_restore_0>

00000690 <puts>:
     690:	ab1ff2ef          	jal	t0,140 <__riscv_save_0>
     694:	1171                	addi	sp,sp,-4
     696:	c02a                	sw	a0,0(sp)
     698:	3bb1                	jal	3f4 <strlen>
     69a:	4582                	lw	a1,0(sp)
     69c:	842a                	mv	s0,a0
     69e:	862a                	mv	a2,a0
     6a0:	4501                	li	a0,0
     6a2:	3f55                	jal	656 <_write>
     6a4:	000045b7          	lui	a1,0x4
     6a8:	4605                	li	a2,1
     6aa:	8f858593          	addi	a1,a1,-1800 # 38f8 <colors+0x384>
     6ae:	4501                	li	a0,0
     6b0:	375d                	jal	656 <_write>
     6b2:	00140513          	addi	a0,s0,1
     6b6:	0111                	addi	sp,sp,4
     6b8:	bc49                	j	14a <__riscv_restore_0>

000006ba <putchar>:
     6ba:	40014737          	lui	a4,0x40014
     6be:	80075783          	lhu	a5,-2048(a4) # 40013800 <__global_pointer$+0x20012ee0>
     6c2:	0407f793          	andi	a5,a5,64
     6c6:	dfe5                	beqz	a5,6be <putchar+0x4>
     6c8:	0562                	slli	a0,a0,0x18
     6ca:	8561                	srai	a0,a0,0x18
     6cc:	80a71223          	sh	a0,-2044(a4)
     6d0:	4505                	li	a0,1
     6d2:	8082                	ret

000006d4 <DelaySysTick>:
     6d4:	e000f7b7          	lui	a5,0xe000f
     6d8:	479c                	lw	a5,8(a5)
     6da:	e000f737          	lui	a4,0xe000f
     6de:	953e                	add	a0,a0,a5
     6e0:	471c                	lw	a5,8(a4)
     6e2:	8f89                	sub	a5,a5,a0
     6e4:	fe07cee3          	bltz	a5,6e0 <DelaySysTick+0xc>
     6e8:	8082                	ret

000006ea <SystemInit>:
     6ea:	a57ff2ef          	jal	t0,140 <__riscv_save_0>
     6ee:	400227b7          	lui	a5,0x40022
     6f2:	4705                	li	a4,1
     6f4:	c398                	sw	a4,0(a5)
     6f6:	400217b7          	lui	a5,0x40021
     6fa:	01080737          	lui	a4,0x1080
     6fe:	0007a223          	sw	zero,4(a5) # 40021004 <__global_pointer$+0x200206e4>
     702:	08170713          	addi	a4,a4,129 # 1080081 <_data_lma+0x107c379>
     706:	c398                	sw	a4,0(a5)
     708:	009f0737          	lui	a4,0x9f0
     70c:	c798                	sw	a4,8(a5)
     70e:	40021737          	lui	a4,0x40021
     712:	431c                	lw	a5,0(a4)
     714:	00679693          	slli	a3,a5,0x6
     718:	fe06dde3          	bgez	a3,712 <SystemInit+0x28>
     71c:	435c                	lw	a5,4(a4)
     71e:	400216b7          	lui	a3,0x40021
     722:	9bf1                	andi	a5,a5,-4
     724:	0027e793          	ori	a5,a5,2
     728:	c35c                	sw	a5,4(a4)
     72a:	4721                	li	a4,8
     72c:	42dc                	lw	a5,4(a3)
     72e:	8bb1                	andi	a5,a5,12
     730:	fee79ee3          	bne	a5,a4,72c <SystemInit+0x42>
     734:	1a100513          	li	a0,417
     738:	35d1                	jal	5fc <SetupUART>
     73a:	bc01                	j	14a <__riscv_restore_0>

0000073c <i2c_chk_evt>:
     73c:	40005737          	lui	a4,0x40005
     740:	41475683          	lhu	a3,1044(a4) # 40005414 <__global_pointer$+0x20004af4>
     744:	41875783          	lhu	a5,1048(a4)
     748:	07c2                	slli	a5,a5,0x10
     74a:	8fd5                	or	a5,a5,a3
     74c:	8fe9                	and	a5,a5,a0
     74e:	40a78533          	sub	a0,a5,a0
     752:	00153513          	seqz	a0,a0
     756:	8082                	ret

00000758 <GPIO_ADCinit>:
     758:	400217b7          	lui	a5,0x40021
     75c:	43d8                	lw	a4,4(a5)
     75e:	76c1                	lui	a3,0xffff0
     760:	7ff68693          	addi	a3,a3,2047 # ffff07ff <__global_pointer$+0xdffefedf>
     764:	8f75                	and	a4,a4,a3
     766:	c3d8                	sw	a4,4(a5)
     768:	4f98                	lw	a4,24(a5)
     76a:	400006b7          	lui	a3,0x40000
     76e:	16fd                	addi	a3,a3,-1
     770:	20076713          	ori	a4,a4,512
     774:	cf98                	sw	a4,24(a5)
     776:	47d8                	lw	a4,12(a5)
     778:	20076713          	ori	a4,a4,512
     77c:	c7d8                	sw	a4,12(a5)
     77e:	47d8                	lw	a4,12(a5)
     780:	dff77713          	andi	a4,a4,-513
     784:	c7d8                	sw	a4,12(a5)
     786:	400127b7          	lui	a5,0x40012
     78a:	40078793          	addi	a5,a5,1024 # 40012400 <__global_pointer$+0x20011ae0>
     78e:	4b98                	lw	a4,16(a5)
     790:	0007a823          	sw	zero,16(a5)
     794:	4b98                	lw	a4,16(a5)
     796:	8f55                	or	a4,a4,a3
     798:	cb98                	sw	a4,16(a5)
     79a:	47d8                	lw	a4,12(a5)
     79c:	0007a623          	sw	zero,12(a5)
     7a0:	47d8                	lw	a4,12(a5)
     7a2:	000406b7          	lui	a3,0x40
     7a6:	16fd                	addi	a3,a3,-1
     7a8:	8f55                	or	a4,a4,a3
     7aa:	c7d8                	sw	a4,12(a5)
     7ac:	4798                	lw	a4,8(a5)
     7ae:	000e06b7          	lui	a3,0xe0
     7b2:	8f55                	or	a4,a4,a3
     7b4:	c798                	sw	a4,8(a5)
     7b6:	0207a623          	sw	zero,44(a5)
     7ba:	0207a823          	sw	zero,48(a5)
     7be:	0207aa23          	sw	zero,52(a5)
     7c2:	4798                	lw	a4,8(a5)
     7c4:	400126b7          	lui	a3,0x40012
     7c8:	00176713          	ori	a4,a4,1
     7cc:	c798                	sw	a4,8(a5)
     7ce:	4798                	lw	a4,8(a5)
     7d0:	00876713          	ori	a4,a4,8
     7d4:	c798                	sw	a4,8(a5)
     7d6:	4086a703          	lw	a4,1032(a3) # 40012408 <__global_pointer$+0x20011ae8>
     7da:	8b21                	andi	a4,a4,8
     7dc:	ff6d                	bnez	a4,7d6 <GPIO_ADCinit+0x7e>
     7de:	4086a703          	lw	a4,1032(a3)
     7e2:	00476713          	ori	a4,a4,4
     7e6:	40e6a423          	sw	a4,1032(a3)
     7ea:	40012737          	lui	a4,0x40012
     7ee:	40872783          	lw	a5,1032(a4) # 40012408 <__global_pointer$+0x20011ae8>
     7f2:	8b91                	andi	a5,a5,4
     7f4:	ffed                	bnez	a5,7ee <GPIO_ADCinit+0x96>
     7f6:	8082                	ret

000007f8 <GPIO_analogRead>:
     7f8:	949ff2ef          	jal	t0,140 <__riscv_save_0>
     7fc:	40012437          	lui	s0,0x40012
     800:	42a42a23          	sw	a0,1076(s0) # 40012434 <__global_pointer$+0x20011b14>
     804:	6509                	lui	a0,0x2
     806:	58050513          	addi	a0,a0,1408 # 2580 <choose_save_page+0xf6>
     80a:	35e9                	jal	6d4 <DelaySysTick>
     80c:	40842783          	lw	a5,1032(s0)
     810:	00400737          	lui	a4,0x400
     814:	40040413          	addi	s0,s0,1024
     818:	8fd9                	or	a5,a5,a4
     81a:	c41c                	sw	a5,8(s0)
     81c:	40012737          	lui	a4,0x40012
     820:	40072783          	lw	a5,1024(a4) # 40012400 <__global_pointer$+0x20011ae0>
     824:	8b89                	andi	a5,a5,2
     826:	dfed                	beqz	a5,820 <GPIO_analogRead+0x28>
     828:	44c72503          	lw	a0,1100(a4)
     82c:	0542                	slli	a0,a0,0x10
     82e:	8141                	srli	a0,a0,0x10
     830:	ba29                	j	14a <__riscv_restore_0>

00000832 <lower_half_ADC_channel>:
     832:	90fff2ef          	jal	t0,140 <__riscv_save_0>
     836:	4511                	li	a0,4
     838:	37c1                	jal	7f8 <GPIO_analogRead>
     83a:	ba01                	j	14a <__riscv_restore_0>

0000083c <upper_half_ADC_channel>:
     83c:	905ff2ef          	jal	t0,140 <__riscv_save_0>
     840:	450d                	li	a0,3
     842:	3f5d                	jal	7f8 <GPIO_analogRead>
     844:	b219                	j	14a <__riscv_restore_0>

00000846 <i2c_setup>:
     846:	a0019223          	sh	zero,-1532(gp) # 20000324 <i2c_err_flags>
     84a:	400217b7          	lui	a5,0x40021
     84e:	4b98                	lw	a4,16(a5)
     850:	002006b7          	lui	a3,0x200
     854:	8f55                	or	a4,a4,a3
     856:	cb98                	sw	a4,16(a5)
     858:	4b98                	lw	a4,16(a5)
     85a:	ffe006b7          	lui	a3,0xffe00
     85e:	16fd                	addi	a3,a3,-1
     860:	8f75                	and	a4,a4,a3
     862:	cb98                	sw	a4,16(a5)
     864:	40005737          	lui	a4,0x40005
     868:	40475783          	lhu	a5,1028(a4) # 40005404 <__global_pointer$+0x20004ae4>
     86c:	07c2                	slli	a5,a5,0x10
     86e:	83c1                	srli	a5,a5,0x10
     870:	fc07f793          	andi	a5,a5,-64
     874:	0187e793          	ori	a5,a5,24
     878:	40f71223          	sh	a5,1028(a4)
     87c:	0f000793          	li	a5,240
     880:	40f71e23          	sh	a5,1052(a4)
     884:	40075783          	lhu	a5,1024(a4)
     888:	0017e793          	ori	a5,a5,1
     88c:	40f71023          	sh	a5,1024(a4)
     890:	8082                	ret

00000892 <i2c_init>:
     892:	8afff2ef          	jal	t0,140 <__riscv_save_0>
     896:	400217b7          	lui	a5,0x40021
     89a:	4f98                	lw	a4,24(a5)
     89c:	002006b7          	lui	a3,0x200
     8a0:	01176713          	ori	a4,a4,17
     8a4:	cf98                	sw	a4,24(a5)
     8a6:	4fd8                	lw	a4,28(a5)
     8a8:	8f55                	or	a4,a4,a3
     8aa:	cfd8                	sw	a4,28(a5)
     8ac:	400117b7          	lui	a5,0x40011
     8b0:	4398                	lw	a4,0(a5)
     8b2:	76fd                	lui	a3,0xfffff
     8b4:	0ff68693          	addi	a3,a3,255 # fffff0ff <__global_pointer$+0xdfffe7df>
     8b8:	f0f77713          	andi	a4,a4,-241
     8bc:	c398                	sw	a4,0(a5)
     8be:	4398                	lw	a4,0(a5)
     8c0:	0d076713          	ori	a4,a4,208
     8c4:	c398                	sw	a4,0(a5)
     8c6:	4398                	lw	a4,0(a5)
     8c8:	8f75                	and	a4,a4,a3
     8ca:	c398                	sw	a4,0(a5)
     8cc:	4398                	lw	a4,0(a5)
     8ce:	6685                	lui	a3,0x1
     8d0:	d0068693          	addi	a3,a3,-768 # d00 <set_color+0xaa>
     8d4:	8f55                	or	a4,a4,a3
     8d6:	c398                	sw	a4,0(a5)
     8d8:	400107b7          	lui	a5,0x40010
     8dc:	43d8                	lw	a4,4(a5)
     8de:	ffc006b7          	lui	a3,0xffc00
     8e2:	16f5                	addi	a3,a3,-3
     8e4:	8f75                	and	a4,a4,a3
     8e6:	c3d8                	sw	a4,4(a5)
     8e8:	43d8                	lw	a4,4(a5)
     8ea:	c3d8                	sw	a4,4(a5)
     8ec:	3fa9                	jal	846 <i2c_setup>
     8ee:	85dff06f          	j	14a <__riscv_restore_0>

000008f2 <i2c_write>:
     8f2:	84fff2ef          	jal	t0,140 <__riscv_save_0>
     8f6:	1141                	addi	sp,sp,-16
     8f8:	832a                	mv	t1,a0
     8fa:	842e                	mv	s0,a1
     8fc:	c03a                	sw	a4,0(sp)
     8fe:	a0019223          	sh	zero,-1532(gp) # 20000324 <i2c_err_flags>
     902:	7d000493          	li	s1,2000
     906:	400052b7          	lui	t0,0x40005
     90a:	557d                	li	a0,-1
     90c:	40028713          	addi	a4,t0,1024 # 40005400 <__global_pointer$+0x20004ae0>
     910:	2f0e                	lhu	a1,24(a4)
     912:	8989                	andi	a1,a1,2
     914:	c9d1                	beqz	a1,9a8 <i2c_write+0xb6>
     916:	14fd                	addi	s1,s1,-1
     918:	fea49ae3          	bne	s1,a0,90c <i2c_write+0x1a>
     91c:	4505                	li	a0,1
     91e:	0141                	addi	sp,sp,16
     920:	82bff06f          	j	14a <__riscv_restore_0>
     924:	577d                	li	a4,-1
     926:	4509                	li	a0,2
     928:	fee48be3          	beq	s1,a4,91e <i2c_write+0x2c>
     92c:	ce11                	beqz	a2,948 <i2c_write+0x56>
     92e:	00845713          	srli	a4,s0,0x8
     932:	400057b7          	lui	a5,0x40005
     936:	40e79823          	sh	a4,1040(a5) # 40005410 <__global_pointer$+0x20004af0>
     93a:	40005737          	lui	a4,0x40005
     93e:	41475783          	lhu	a5,1044(a4) # 40005414 <__global_pointer$+0x20004af4>
     942:	0807f793          	andi	a5,a5,128
     946:	dfe5                	beqz	a5,93e <i2c_write+0x4c>
     948:	0ff47413          	andi	s0,s0,255
     94c:	400057b7          	lui	a5,0x40005
     950:	40879823          	sh	s0,1040(a5) # 40005410 <__global_pointer$+0x20004af0>
     954:	40005737          	lui	a4,0x40005
     958:	41475783          	lhu	a5,1044(a4) # 40005414 <__global_pointer$+0x20004af4>
     95c:	0807f793          	andi	a5,a5,128
     960:	dfe5                	beqz	a5,958 <i2c_write+0x66>
     962:	4782                	lw	a5,0(sp)
     964:	40005737          	lui	a4,0x40005
     968:	00f684b3          	add	s1,a3,a5
     96c:	02969363          	bne	a3,s1,992 <i2c_write+0xa0>
     970:	00070437          	lui	s0,0x70
     974:	08440413          	addi	s0,s0,132 # 70084 <_data_lma+0x6c37c>
     978:	8522                	mv	a0,s0
     97a:	33c9                	jal	73c <i2c_chk_evt>
     97c:	dd75                	beqz	a0,978 <i2c_write+0x86>
     97e:	40005737          	lui	a4,0x40005
     982:	40075783          	lhu	a5,1024(a4) # 40005400 <__global_pointer$+0x20004ae0>
     986:	4501                	li	a0,0
     988:	2007e793          	ori	a5,a5,512
     98c:	40f71023          	sh	a5,1024(a4)
     990:	b779                	j	91e <i2c_write+0x2c>
     992:	41475783          	lhu	a5,1044(a4)
     996:	0807f793          	andi	a5,a5,128
     99a:	dfe5                	beqz	a5,992 <i2c_write+0xa0>
     99c:	0685                	addi	a3,a3,1
     99e:	fff6c783          	lbu	a5,-1(a3) # ffbfffff <__global_pointer$+0xdfbff6df>
     9a2:	40f71823          	sh	a5,1040(a4)
     9a6:	b7d9                	j	96c <i2c_write+0x7a>
     9a8:	230e                	lhu	a1,0(a4)
     9aa:	1005e593          	ori	a1,a1,256
     9ae:	a30e                	sh	a1,0(a4)
     9b0:	00030737          	lui	a4,0x30
     9b4:	0705                	addi	a4,a4,1
     9b6:	853a                	mv	a0,a4
     9b8:	c636                	sw	a3,12(sp)
     9ba:	c432                	sw	a2,8(sp)
     9bc:	c21a                	sw	t1,4(sp)
     9be:	3bbd                	jal	73c <i2c_chk_evt>
     9c0:	000307b7          	lui	a5,0x30
     9c4:	00178713          	addi	a4,a5,1 # 30001 <_data_lma+0x2c2f9>
     9c8:	4312                	lw	t1,4(sp)
     9ca:	4622                	lw	a2,8(sp)
     9cc:	46b2                	lw	a3,12(sp)
     9ce:	d565                	beqz	a0,9b6 <i2c_write+0xc4>
     9d0:	0306                	slli	t1,t1,0x1
     9d2:	40005737          	lui	a4,0x40005
     9d6:	0fe37313          	andi	t1,t1,254
     9da:	40671823          	sh	t1,1040(a4) # 40005410 <__global_pointer$+0x20004af0>
     9de:	00070737          	lui	a4,0x70
     9e2:	08270713          	addi	a4,a4,130 # 70082 <_data_lma+0x6c37a>
     9e6:	853a                	mv	a0,a4
     9e8:	c436                	sw	a3,8(sp)
     9ea:	c232                	sw	a2,4(sp)
     9ec:	3b81                	jal	73c <i2c_chk_evt>
     9ee:	4612                	lw	a2,4(sp)
     9f0:	46a2                	lw	a3,8(sp)
     9f2:	f90d                	bnez	a0,924 <i2c_write+0x32>
     9f4:	000707b7          	lui	a5,0x70
     9f8:	14fd                	addi	s1,s1,-1
     9fa:	55fd                	li	a1,-1
     9fc:	08278713          	addi	a4,a5,130 # 70082 <_data_lma+0x6c37a>
     a00:	feb493e3          	bne	s1,a1,9e6 <i2c_write+0xf4>
     a04:	4509                	li	a0,2
     a06:	bf21                	j	91e <i2c_write+0x2c>

00000a08 <i2c_read>:
     a08:	f38ff2ef          	jal	t0,140 <__riscv_save_0>
     a0c:	1141                	addi	sp,sp,-16
     a0e:	87aa                	mv	a5,a0
     a10:	c036                	sw	a3,0(sp)
     a12:	84ba                	mv	s1,a4
     a14:	7d100513          	li	a0,2001
     a18:	400052b7          	lui	t0,0x40005
     a1c:	40028693          	addi	a3,t0,1024 # 40005400 <__global_pointer$+0x20004ae0>
     a20:	0186d303          	lhu	t1,24(a3)
     a24:	00237313          	andi	t1,t1,2
     a28:	0e030f63          	beqz	t1,b26 <i2c_read+0x11e>
     a2c:	157d                	addi	a0,a0,-1
     a2e:	f57d                	bnez	a0,a1c <i2c_read+0x14>
     a30:	4505                	li	a0,1
     a32:	0141                	addi	sp,sp,16
     a34:	f16ff06f          	j	14a <__riscv_restore_0>
     a38:	147d                	addi	s0,s0,-1
     a3a:	ec45                	bnez	s0,af2 <i2c_read+0xea>
     a3c:	a299                	j	b82 <i2c_read+0x17a>
     a3e:	e899                	bnez	s1,a54 <i2c_read+0x4c>
     a40:	4006d783          	lhu	a5,1024(a3)
     a44:	07c2                	slli	a5,a5,0x10
     a46:	83c1                	srli	a5,a5,0x10
     a48:	bff7f793          	andi	a5,a5,-1025
     a4c:	07c2                	slli	a5,a5,0x10
     a4e:	83c1                	srli	a5,a5,0x10
     a50:	40f69023          	sh	a5,1024(a3)
     a54:	4146d783          	lhu	a5,1044(a3)
     a58:	0407f793          	andi	a5,a5,64
     a5c:	dfe5                	beqz	a5,a54 <i2c_read+0x4c>
     a5e:	4702                	lw	a4,0(sp)
     a60:	4106d783          	lhu	a5,1040(a3)
     a64:	0705                	addi	a4,a4,1
     a66:	c03a                	sw	a4,0(sp)
     a68:	fef70fa3          	sb	a5,-1(a4)
     a6c:	a869                	j	b06 <i2c_read+0xfe>
     a6e:	ce11                	beqz	a2,a8a <i2c_read+0x82>
     a70:	0085d693          	srli	a3,a1,0x8
     a74:	400057b7          	lui	a5,0x40005
     a78:	40d79823          	sh	a3,1040(a5) # 40005410 <__global_pointer$+0x20004af0>
     a7c:	400056b7          	lui	a3,0x40005
     a80:	4146d783          	lhu	a5,1044(a3) # 40005414 <__global_pointer$+0x20004af4>
     a84:	0807f793          	andi	a5,a5,128
     a88:	dfe5                	beqz	a5,a80 <i2c_read+0x78>
     a8a:	0ff5f593          	andi	a1,a1,255
     a8e:	400057b7          	lui	a5,0x40005
     a92:	40b79823          	sh	a1,1040(a5) # 40005410 <__global_pointer$+0x20004af0>
     a96:	40005637          	lui	a2,0x40005
     a9a:	41465683          	lhu	a3,1044(a2) # 40005414 <__global_pointer$+0x20004af4>
     a9e:	0806f693          	andi	a3,a3,128
     aa2:	dee5                	beqz	a3,a9a <i2c_read+0x92>
     aa4:	4685                	li	a3,1
     aa6:	0096f863          	bgeu	a3,s1,ab6 <i2c_read+0xae>
     aaa:	40065683          	lhu	a3,1024(a2)
     aae:	4006e693          	ori	a3,a3,1024
     ab2:	40d61023          	sh	a3,1024(a2)
     ab6:	400056b7          	lui	a3,0x40005
     aba:	4006d783          	lhu	a5,1024(a3) # 40005400 <__global_pointer$+0x20004ae0>
     abe:	1007e793          	ori	a5,a5,256
     ac2:	40f69023          	sh	a5,1024(a3)
     ac6:	000307b7          	lui	a5,0x30
     aca:	0785                	addi	a5,a5,1
     acc:	853e                	mv	a0,a5
     ace:	31bd                	jal	73c <i2c_chk_evt>
     ad0:	000307b7          	lui	a5,0x30
     ad4:	0785                	addi	a5,a5,1
     ad6:	d97d                	beqz	a0,acc <i2c_read+0xc4>
     ad8:	00146413          	ori	s0,s0,1
     adc:	0442                	slli	s0,s0,0x10
     ade:	8041                	srli	s0,s0,0x10
     ae0:	400057b7          	lui	a5,0x40005
     ae4:	40879823          	sh	s0,1040(a5) # 40005410 <__global_pointer$+0x20004af0>
     ae8:	000307b7          	lui	a5,0x30
     aec:	7d100413          	li	s0,2001
     af0:	0789                	addi	a5,a5,2
     af2:	853e                	mv	a0,a5
     af4:	31a1                	jal	73c <i2c_chk_evt>
     af6:	000307b7          	lui	a5,0x30
     afa:	0789                	addi	a5,a5,2
     afc:	dd15                	beqz	a0,a38 <i2c_read+0x30>
     afe:	0ff00593          	li	a1,255
     b02:	400056b7          	lui	a3,0x40005
     b06:	fff48713          	addi	a4,s1,-1
     b0a:	0ff77493          	andi	s1,a4,255
     b0e:	f2b498e3          	bne	s1,a1,a3e <i2c_read+0x36>
     b12:	40005737          	lui	a4,0x40005
     b16:	40075783          	lhu	a5,1024(a4) # 40005400 <__global_pointer$+0x20004ae0>
     b1a:	4501                	li	a0,0
     b1c:	2007e793          	ori	a5,a5,512
     b20:	40f71023          	sh	a5,1024(a4)
     b24:	b739                	j	a32 <i2c_read+0x2a>
     b26:	228a                	lhu	a0,0(a3)
     b28:	00030437          	lui	s0,0x30
     b2c:	0405                	addi	s0,s0,1
     b2e:	10056513          	ori	a0,a0,256
     b32:	a28a                	sh	a0,0(a3)
     b34:	8522                	mv	a0,s0
     b36:	c632                	sw	a2,12(sp)
     b38:	c42e                	sw	a1,8(sp)
     b3a:	c23e                	sw	a5,4(sp)
     b3c:	3101                	jal	73c <i2c_chk_evt>
     b3e:	4792                	lw	a5,4(sp)
     b40:	45a2                	lw	a1,8(sp)
     b42:	4632                	lw	a2,12(sp)
     b44:	d965                	beqz	a0,b34 <i2c_read+0x12c>
     b46:	00179413          	slli	s0,a5,0x1
     b4a:	0fe47693          	andi	a3,s0,254
     b4e:	400057b7          	lui	a5,0x40005
     b52:	40d79823          	sh	a3,1040(a5) # 40005410 <__global_pointer$+0x20004af0>
     b56:	000706b7          	lui	a3,0x70
     b5a:	7d100793          	li	a5,2001
     b5e:	08268693          	addi	a3,a3,130 # 70082 <_data_lma+0x6c37a>
     b62:	8536                	mv	a0,a3
     b64:	c632                	sw	a2,12(sp)
     b66:	c42e                	sw	a1,8(sp)
     b68:	c23e                	sw	a5,4(sp)
     b6a:	3ec9                	jal	73c <i2c_chk_evt>
     b6c:	45a2                	lw	a1,8(sp)
     b6e:	4632                	lw	a2,12(sp)
     b70:	ee051fe3          	bnez	a0,a6e <i2c_read+0x66>
     b74:	4792                	lw	a5,4(sp)
     b76:	00070737          	lui	a4,0x70
     b7a:	08270693          	addi	a3,a4,130 # 70082 <_data_lma+0x6c37a>
     b7e:	17fd                	addi	a5,a5,-1
     b80:	f3ed                	bnez	a5,b62 <i2c_read+0x15a>
     b82:	4509                	li	a0,2
     b84:	b57d                	j	a32 <i2c_read+0x2a>

00000b86 <i2c_write_pages>:
     b86:	dbaff2ef          	jal	t0,140 <__riscv_save_0>
     b8a:	1141                	addi	sp,sp,-16
     b8c:	00e687b3          	add	a5,a3,a4
     b90:	c22a                	sw	a0,4(sp)
     b92:	842e                	mv	s0,a1
     b94:	c432                	sw	a2,8(sp)
     b96:	84b6                	mv	s1,a3
     b98:	c03e                	sw	a5,0(sp)
     b9a:	4782                	lw	a5,0(sp)
     b9c:	00f4e663          	bltu	s1,a5,ba8 <i2c_write_pages+0x22>
     ba0:	4501                	li	a0,0
     ba2:	0141                	addi	sp,sp,16
     ba4:	da6ff06f          	j	14a <__riscv_restore_0>
     ba8:	4782                	lw	a5,0(sp)
     baa:	04000693          	li	a3,64
     bae:	40978733          	sub	a4,a5,s1
     bb2:	0742                	slli	a4,a4,0x10
     bb4:	8341                	srli	a4,a4,0x10
     bb6:	87ba                	mv	a5,a4
     bb8:	00e6f463          	bgeu	a3,a4,bc0 <i2c_write_pages+0x3a>
     bbc:	04000793          	li	a5,64
     bc0:	07c2                	slli	a5,a5,0x10
     bc2:	4622                	lw	a2,8(sp)
     bc4:	4512                	lw	a0,4(sp)
     bc6:	83c1                	srli	a5,a5,0x10
     bc8:	0ff7f713          	andi	a4,a5,255
     bcc:	86a6                	mv	a3,s1
     bce:	85a2                	mv	a1,s0
     bd0:	c63e                	sw	a5,12(sp)
     bd2:	3305                	jal	8f2 <i2c_write>
     bd4:	f579                	bnez	a0,ba2 <i2c_write_pages+0x1c>
     bd6:	47b2                	lw	a5,12(sp)
     bd8:	0003b537          	lui	a0,0x3b
     bdc:	98050513          	addi	a0,a0,-1664 # 3a980 <_data_lma+0x36c78>
     be0:	94be                	add	s1,s1,a5
     be2:	97a2                	add	a5,a5,s0
     be4:	01079413          	slli	s0,a5,0x10
     be8:	8041                	srli	s0,s0,0x10
     bea:	34ed                	jal	6d4 <DelaySysTick>
     bec:	b77d                	j	b9a <i2c_write_pages+0x14>

00000bee <i2c_read_pages>:
     bee:	d52ff2ef          	jal	t0,140 <__riscv_save_0>
     bf2:	1141                	addi	sp,sp,-16
     bf4:	00e687b3          	add	a5,a3,a4
     bf8:	c22a                	sw	a0,4(sp)
     bfa:	842e                	mv	s0,a1
     bfc:	c432                	sw	a2,8(sp)
     bfe:	84b6                	mv	s1,a3
     c00:	c03e                	sw	a5,0(sp)
     c02:	4782                	lw	a5,0(sp)
     c04:	00f4e663          	bltu	s1,a5,c10 <i2c_read_pages+0x22>
     c08:	4501                	li	a0,0
     c0a:	0141                	addi	sp,sp,16
     c0c:	d3eff06f          	j	14a <__riscv_restore_0>
     c10:	4782                	lw	a5,0(sp)
     c12:	04000693          	li	a3,64
     c16:	40978733          	sub	a4,a5,s1
     c1a:	0742                	slli	a4,a4,0x10
     c1c:	8341                	srli	a4,a4,0x10
     c1e:	87ba                	mv	a5,a4
     c20:	00e6f463          	bgeu	a3,a4,c28 <i2c_read_pages+0x3a>
     c24:	04000793          	li	a5,64
     c28:	07c2                	slli	a5,a5,0x10
     c2a:	4622                	lw	a2,8(sp)
     c2c:	4512                	lw	a0,4(sp)
     c2e:	83c1                	srli	a5,a5,0x10
     c30:	0ff7f713          	andi	a4,a5,255
     c34:	86a6                	mv	a3,s1
     c36:	85a2                	mv	a1,s0
     c38:	c63e                	sw	a5,12(sp)
     c3a:	33f9                	jal	a08 <i2c_read>
     c3c:	f579                	bnez	a0,c0a <i2c_read_pages+0x1c>
     c3e:	47b2                	lw	a5,12(sp)
     c40:	0003b537          	lui	a0,0x3b
     c44:	98050513          	addi	a0,a0,-1664 # 3a980 <_data_lma+0x36c78>
     c48:	94be                	add	s1,s1,a5
     c4a:	97a2                	add	a5,a5,s0
     c4c:	01079413          	slli	s0,a5,0x10
     c50:	8041                	srli	s0,s0,0x10
     c52:	3449                	jal	6d4 <DelaySysTick>
     c54:	b77d                	j	c02 <i2c_read_pages+0x14>

00000c56 <set_color>:
     c56:	ceaff2ef          	jal	t0,140 <__riscv_save_0>
     c5a:	200007b7          	lui	a5,0x20000
     c5e:	00b7c603          	lbu	a2,11(a5) # 2000000b <ledDivider>
     c62:	0085d713          	srli	a4,a1,0x8
     c66:	00151793          	slli	a5,a0,0x1
     c6a:	1111                	addi	sp,sp,-28
     c6c:	0ff5f313          	andi	t1,a1,255
     c70:	0ff77713          	andi	a4,a4,255
     c74:	0105d493          	srli	s1,a1,0x10
     c78:	a0818293          	addi	t0,gp,-1528 # 20000328 <led_array>
     c7c:	00a785b3          	add	a1,a5,a0
     c80:	92ae                	add	t0,t0,a1
     c82:	c82a                	sw	a0,16(sp)
     c84:	85b2                	mv	a1,a2
     c86:	853a                	mv	a0,a4
     c88:	ca1a                	sw	t1,20(sp)
     c8a:	c63e                	sw	a5,12(sp)
     c8c:	c416                	sw	t0,8(sp)
     c8e:	c232                	sw	a2,4(sp)
     c90:	c03a                	sw	a4,0(sp)
     c92:	ce2ff0ef          	jal	ra,174 <__udivsi3>
     c96:	4702                	lw	a4,0(sp)
     c98:	85aa                	mv	a1,a0
     c9a:	0ff57513          	andi	a0,a0,255
     c9e:	0ff4f493          	andi	s1,s1,255
     ca2:	a0818413          	addi	s0,gp,-1528 # 20000328 <led_array>
     ca6:	4612                	lw	a2,4(sp)
     ca8:	42a2                	lw	t0,8(sp)
     caa:	47b2                	lw	a5,12(sp)
     cac:	46c2                	lw	a3,16(sp)
     cae:	4352                	lw	t1,20(sp)
     cb0:	00a77363          	bgeu	a4,a0,cb6 <set_color+0x60>
     cb4:	85ba                	mv	a1,a4
     cb6:	00d78733          	add	a4,a5,a3
     cba:	9722                	add	a4,a4,s0
     cbc:	00b280a3          	sb	a1,1(t0)
     cc0:	851a                	mv	a0,t1
     cc2:	85b2                	mv	a1,a2
     cc4:	c836                	sw	a3,16(sp)
     cc6:	c63e                	sw	a5,12(sp)
     cc8:	c43a                	sw	a4,8(sp)
     cca:	c232                	sw	a2,4(sp)
     ccc:	c01a                	sw	t1,0(sp)
     cce:	ca6ff0ef          	jal	ra,174 <__udivsi3>
     cd2:	4302                	lw	t1,0(sp)
     cd4:	85aa                	mv	a1,a0
     cd6:	0ff57513          	andi	a0,a0,255
     cda:	4612                	lw	a2,4(sp)
     cdc:	4722                	lw	a4,8(sp)
     cde:	47b2                	lw	a5,12(sp)
     ce0:	46c2                	lw	a3,16(sp)
     ce2:	00a37363          	bgeu	t1,a0,ce8 <set_color+0x92>
     ce6:	859a                	mv	a1,t1
     ce8:	97b6                	add	a5,a5,a3
     cea:	a30c                	sb	a1,0(a4)
     cec:	8526                	mv	a0,s1
     cee:	85b2                	mv	a1,a2
     cf0:	943e                	add	s0,s0,a5
     cf2:	c82ff0ef          	jal	ra,174 <__udivsi3>
     cf6:	87aa                	mv	a5,a0
     cf8:	0ff57513          	andi	a0,a0,255
     cfc:	00a4f363          	bgeu	s1,a0,d02 <set_color+0xac>
     d00:	87a6                	mv	a5,s1
     d02:	a03c                	sb	a5,2(s0)
     d04:	0171                	addi	sp,sp,28
     d06:	c44ff06f          	j	14a <__riscv_restore_0>

00000d0a <clear>:
     d0a:	c36ff2ef          	jal	t0,140 <__riscv_save_0>
     d0e:	1171                	addi	sp,sp,-4
     d10:	4401                	li	s0,0
     d12:	00011023          	sh	zero,0(sp)
     d16:	00010123          	sb	zero,2(sp)
     d1a:	4582                	lw	a1,0(sp)
     d1c:	0ff47513          	andi	a0,s0,255
     d20:	0405                	addi	s0,s0,1
     d22:	3f15                	jal	c56 <set_color>
     d24:	04000793          	li	a5,64
     d28:	fef415e3          	bne	s0,a5,d12 <clear+0x8>
     d2c:	0111                	addi	sp,sp,4
     d2e:	c1cff06f          	j	14a <__riscv_restore_0>

00000d32 <fill_color.constprop.15>:
     d32:	c0eff2ef          	jal	t0,140 <__riscv_save_0>
     d36:	1171                	addi	sp,sp,-4
     d38:	c02a                	sw	a0,0(sp)
     d3a:	4401                	li	s0,0
     d3c:	4582                	lw	a1,0(sp)
     d3e:	0ff47513          	andi	a0,s0,255
     d42:	0405                	addi	s0,s0,1
     d44:	3f09                	jal	c56 <set_color>
     d46:	04000793          	li	a5,64
     d4a:	fef419e3          	bne	s0,a5,d3c <fill_color.constprop.15+0xa>
     d4e:	0111                	addi	sp,sp,4
     d50:	bfaff06f          	j	14a <__riscv_restore_0>

00000d54 <ADC_read_pad>:
     d54:	becff2ef          	jal	t0,140 <__riscv_save_0>
     d58:	4509                	li	a0,2
     d5a:	3c79                	jal	7f8 <GPIO_analogRead>
     d5c:	beeff06f          	j	14a <__riscv_restore_0>

00000d60 <ADC_read_smallboard>:
     d60:	be0ff2ef          	jal	t0,140 <__riscv_save_0>
     d64:	3fc5                	jal	d54 <ADC_read_pad>
     d66:	be4ff06f          	j	14a <__riscv_restore_0>

00000d6a <multiple_ADC_reads>:
     d6a:	bd6ff2ef          	jal	t0,140 <__riscv_save_0>
     d6e:	862e                	mv	a2,a1
     d70:	1151                	addi	sp,sp,-12
     d72:	872a                	mv	a4,a0
     d74:	4401                	li	s0,0
     d76:	4481                	li	s1,0
     d78:	4581                	li	a1,0
     d7a:	00c44b63          	blt	s0,a2,d90 <multiple_ADC_reads+0x26>
     d7e:	4681                	li	a3,0
     d80:	8526                	mv	a0,s1
     d82:	07e020ef          	jal	ra,2e00 <__udivdi3>
     d86:	0542                	slli	a0,a0,0x10
     d88:	8141                	srli	a0,a0,0x10
     d8a:	0131                	addi	sp,sp,12
     d8c:	bbeff06f          	j	14a <__riscv_restore_0>
     d90:	c432                	sw	a2,8(sp)
     d92:	c23a                	sw	a4,4(sp)
     d94:	c02e                	sw	a1,0(sp)
     d96:	9702                	jalr	a4
     d98:	4582                	lw	a1,0(sp)
     d9a:	9526                	add	a0,a0,s1
     d9c:	009536b3          	sltu	a3,a0,s1
     da0:	84aa                	mv	s1,a0
     da2:	6531                	lui	a0,0xc
     da4:	95b6                	add	a1,a1,a3
     da6:	b8050513          	addi	a0,a0,-1152 # bb80 <_data_lma+0x7e78>
     daa:	0405                	addi	s0,s0,1
     dac:	c02e                	sw	a1,0(sp)
     dae:	0462                	slli	s0,s0,0x18
     db0:	925ff0ef          	jal	ra,6d4 <DelaySysTick>
     db4:	8461                	srai	s0,s0,0x18
     db6:	4622                	lw	a2,8(sp)
     db8:	4712                	lw	a4,4(sp)
     dba:	4582                	lw	a1,0(sp)
     dbc:	bf7d                	j	d7a <multiple_ADC_reads+0x10>

00000dbe <JOY_check_button>:
     dbe:	26b00713          	li	a4,619
     dc2:	87aa                	mv	a5,a0
     dc4:	00a76a63          	bltu	a4,a0,dd8 <JOY_check_button+0x1a>
     dc8:	26c00713          	li	a4,620
     dcc:	8f09                	sub	a4,a4,a0
     dce:	46bd                	li	a3,15
     dd0:	5579                	li	a0,-2
     dd2:	00e6c963          	blt	a3,a4,de4 <JOY_check_button+0x26>
     dd6:	8082                	ret
     dd8:	27b00713          	li	a4,635
     ddc:	5579                	li	a0,-2
     dde:	08f76d63          	bltu	a4,a5,e78 <JOY_check_button+0xba>
     de2:	8082                	ret
     de4:	16100713          	li	a4,353
     de8:	00f76963          	bltu	a4,a5,dfa <JOY_check_button+0x3c>
     dec:	16200713          	li	a4,354
     df0:	8f1d                	sub	a4,a4,a5
     df2:	5575                	li	a0,-3
     df4:	00e6cc63          	blt	a3,a4,e0c <JOY_check_button+0x4e>
     df8:	8082                	ret
     dfa:	17100713          	li	a4,369
     dfe:	5575                	li	a0,-3
     e00:	06f77b63          	bgeu	a4,a5,e76 <JOY_check_button+0xb8>
     e04:	20100713          	li	a4,513
     e08:	00f76a63          	bltu	a4,a5,e1c <JOY_check_button+0x5e>
     e0c:	20200693          	li	a3,514
     e10:	8e9d                	sub	a3,a3,a5
     e12:	473d                	li	a4,15
     e14:	5571                	li	a0,-4
     e16:	00d74963          	blt	a4,a3,e28 <JOY_check_button+0x6a>
     e1a:	8082                	ret
     e1c:	21100713          	li	a4,529
     e20:	5571                	li	a0,-4
     e22:	02f76d63          	bltu	a4,a5,e5c <JOY_check_button+0x9e>
     e26:	8082                	ret
     e28:	1aa00693          	li	a3,426
     e2c:	00f6e963          	bltu	a3,a5,e3e <JOY_check_button+0x80>
     e30:	1ab00693          	li	a3,427
     e34:	8e9d                	sub	a3,a3,a5
     e36:	556d                	li	a0,-5
     e38:	02d74263          	blt	a4,a3,e5c <JOY_check_button+0x9e>
     e3c:	8082                	ret
     e3e:	1ba00693          	li	a3,442
     e42:	556d                	li	a0,-5
     e44:	02f6f963          	bgeu	a3,a5,e76 <JOY_check_button+0xb8>
     e48:	1d400693          	li	a3,468
     e4c:	02f6e063          	bltu	a3,a5,e6c <JOY_check_button+0xae>
     e50:	1d500693          	li	a3,469
     e54:	8e9d                	sub	a3,a3,a5
     e56:	555d                	li	a0,-9
     e58:	00d75f63          	bge	a4,a3,e76 <JOY_check_button+0xb8>
     e5c:	2ab00693          	li	a3,683
     e60:	8e9d                	sub	a3,a3,a5
     e62:	473d                	li	a4,15
     e64:	5559                	li	a0,-10
     e66:	02d74363          	blt	a4,a3,e8c <JOY_check_button+0xce>
     e6a:	8082                	ret
     e6c:	1e400713          	li	a4,484
     e70:	555d                	li	a0,-9
     e72:	fef765e3          	bltu	a4,a5,e5c <JOY_check_button+0x9e>
     e76:	8082                	ret
     e78:	2aa00713          	li	a4,682
     e7c:	fef770e3          	bgeu	a4,a5,e5c <JOY_check_button+0x9e>
     e80:	2ba00713          	li	a4,698
     e84:	5559                	li	a0,-10
     e86:	02f76363          	bltu	a4,a5,eac <JOY_check_button+0xee>
     e8a:	8082                	ret
     e8c:	23300693          	li	a3,563
     e90:	00f6e963          	bltu	a3,a5,ea2 <JOY_check_button+0xe4>
     e94:	23400693          	li	a3,564
     e98:	8e9d                	sub	a3,a3,a5
     e9a:	5555                	li	a0,-11
     e9c:	00d74b63          	blt	a4,a3,eb2 <JOY_check_button+0xf4>
     ea0:	8082                	ret
     ea2:	24300713          	li	a4,579
     ea6:	5555                	li	a0,-11
     ea8:	fcf777e3          	bgeu	a4,a5,e76 <JOY_check_button+0xb8>
     eac:	1507b793          	sltiu	a5,a5,336
     eb0:	a815                	j	ee4 <JOY_check_button+0x126>
     eb2:	18400693          	li	a3,388
     eb6:	00f6e963          	bltu	a3,a5,ec8 <JOY_check_button+0x10a>
     eba:	18500693          	li	a3,389
     ebe:	8e9d                	sub	a3,a3,a5
     ec0:	5569                	li	a0,-6
     ec2:	00d74763          	blt	a4,a3,ed0 <JOY_check_button+0x112>
     ec6:	8082                	ret
     ec8:	19400713          	li	a4,404
     ecc:	5569                	li	a0,-6
     ece:	bfe9                	j	ea8 <JOY_check_button+0xea>
     ed0:	13f00713          	li	a4,319
     ed4:	fcf76ce3          	bltu	a4,a5,eac <JOY_check_button+0xee>
     ed8:	14000513          	li	a0,320
     edc:	40f507b3          	sub	a5,a0,a5
     ee0:	0107a793          	slti	a5,a5,16
     ee4:	5565                	li	a0,-7
     ee6:	fbc1                	bnez	a5,e76 <JOY_check_button+0xb8>
     ee8:	557d                	li	a0,-1
     eea:	b771                	j	e76 <JOY_check_button+0xb8>

00000eec <matrix_pressed_two>:
     eec:	a54ff2ef          	jal	t0,140 <__riscv_save_0>
     ef0:	00001537          	lui	a0,0x1
     ef4:	4595                	li	a1,5
     ef6:	83c50513          	addi	a0,a0,-1988 # 83c <upper_half_ADC_channel>
     efa:	3d85                	jal	d6a <multiple_ADC_reads>
     efc:	03c00793          	li	a5,60
     f00:	84aa                	mv	s1,a0
     f02:	00a7f963          	bgeu	a5,a0,f14 <matrix_pressed_two+0x28>
     f06:	85aa                	mv	a1,a0
     f08:	00003537          	lui	a0,0x3
     f0c:	78c50513          	addi	a0,a0,1932 # 378c <colors+0x218>
     f10:	ec2ff0ef          	jal	ra,5d2 <printf>
     f14:	670d                	lui	a4,0x3
     f16:	3d470413          	addi	s0,a4,980 # 33d4 <buttons>
     f1a:	4501                	li	a0,0
     f1c:	3d470713          	addi	a4,a4,980
     f20:	4615                	li	a2,5
     f22:	02000693          	li	a3,32
     f26:	431c                	lw	a5,0(a4)
     f28:	40f487b3          	sub	a5,s1,a5
     f2c:	41f7d593          	srai	a1,a5,0x1f
     f30:	8fad                	xor	a5,a5,a1
     f32:	8f8d                	sub	a5,a5,a1
     f34:	06f65663          	bge	a2,a5,fa0 <matrix_pressed_two+0xb4>
     f38:	0505                	addi	a0,a0,1
     f3a:	0ff57793          	andi	a5,a0,255
     f3e:	01879513          	slli	a0,a5,0x18
     f42:	0711                	addi	a4,a4,4
     f44:	8561                	srai	a0,a0,0x18
     f46:	fed790e3          	bne	a5,a3,f26 <matrix_pressed_two+0x3a>
     f4a:	00001537          	lui	a0,0x1
     f4e:	4595                	li	a1,5
     f50:	83250513          	addi	a0,a0,-1998 # 832 <lower_half_ADC_channel>
     f54:	3d19                	jal	d6a <multiple_ADC_reads>
     f56:	03c00793          	li	a5,60
     f5a:	84aa                	mv	s1,a0
     f5c:	00a7f963          	bgeu	a5,a0,f6e <matrix_pressed_two+0x82>
     f60:	85aa                	mv	a1,a0
     f62:	00003537          	lui	a0,0x3
     f66:	79c50513          	addi	a0,a0,1948 # 379c <colors+0x228>
     f6a:	e68ff0ef          	jal	ra,5d2 <printf>
     f6e:	02000513          	li	a0,32
     f72:	46a1                	li	a3,8
     f74:	04000713          	li	a4,64
     f78:	08042783          	lw	a5,128(s0) # 30080 <_data_lma+0x2c378>
     f7c:	40f487b3          	sub	a5,s1,a5
     f80:	41f7d613          	srai	a2,a5,0x1f
     f84:	8fb1                	xor	a5,a5,a2
     f86:	8f91                	sub	a5,a5,a2
     f88:	00f6dc63          	bge	a3,a5,fa0 <matrix_pressed_two+0xb4>
     f8c:	0505                	addi	a0,a0,1
     f8e:	0ff57793          	andi	a5,a0,255
     f92:	01879513          	slli	a0,a5,0x18
     f96:	0411                	addi	s0,s0,4
     f98:	8561                	srai	a0,a0,0x18
     f9a:	fce79fe3          	bne	a5,a4,f78 <matrix_pressed_two+0x8c>
     f9e:	557d                	li	a0,-1
     fa0:	9aaff06f          	j	14a <__riscv_restore_0>

00000fa4 <JOY_sound>:
     fa4:	99cff2ef          	jal	t0,140 <__riscv_save_0>
     fa8:	40011637          	lui	a2,0x40011
     fac:	421c                	lw	a5,0(a2)
     fae:	76c5                	lui	a3,0xffff1
     fb0:	16fd                	addi	a3,a3,-1
     fb2:	8ff5                	and	a5,a5,a3
     fb4:	668d                	lui	a3,0x3
     fb6:	8fd5                	or	a5,a5,a3
     fb8:	1161                	addi	sp,sp,-8
     fba:	c21c                	sw	a5,0(a2)
     fbc:	84ae                	mv	s1,a1
     fbe:	c02a                	sw	a0,0(sp)
     fc0:	85aa                	mv	a1,a0
     fc2:	0007a537          	lui	a0,0x7a
     fc6:	00549413          	slli	s0,s1,0x5
     fca:	12050513          	addi	a0,a0,288 # 7a120 <_data_lma+0x76418>
     fce:	99eff0ef          	jal	ra,16c <__divsi3>
     fd2:	8c05                	sub	s0,s0,s1
     fd4:	040a                	slli	s0,s0,0x2
     fd6:	00151793          	slli	a5,a0,0x1
     fda:	4702                	lw	a4,0(sp)
     fdc:	9426                	add	s0,s0,s1
     fde:	953e                	add	a0,a0,a5
     fe0:	040e                	slli	s0,s0,0x3
     fe2:	00451493          	slli	s1,a0,0x4
     fe6:	3e800693          	li	a3,1000
     fea:	0286e563          	bltu	a3,s0,1014 <JOY_sound+0x70>
     fee:	c711                	beqz	a4,ffa <JOY_sound+0x56>
     ff0:	400117b7          	lui	a5,0x40011
     ff4:	00080737          	lui	a4,0x80
     ff8:	cb98                	sw	a4,16(a5)
     ffa:	8526                	mv	a0,s1
     ffc:	ed8ff0ef          	jal	ra,6d4 <DelaySysTick>
    1000:	400117b7          	lui	a5,0x40011
    1004:	4721                	li	a4,8
    1006:	cb98                	sw	a4,16(a5)
    1008:	8526                	mv	a0,s1
    100a:	ecaff0ef          	jal	ra,6d4 <DelaySysTick>
    100e:	0121                	addi	sp,sp,8
    1010:	93aff06f          	j	14a <__riscv_restore_0>
    1014:	c711                	beqz	a4,1020 <JOY_sound+0x7c>
    1016:	400116b7          	lui	a3,0x40011
    101a:	00080637          	lui	a2,0x80
    101e:	ca90                	sw	a2,16(a3)
    1020:	8526                	mv	a0,s1
    1022:	c23e                	sw	a5,4(sp)
    1024:	c03a                	sw	a4,0(sp)
    1026:	eaeff0ef          	jal	ra,6d4 <DelaySysTick>
    102a:	400116b7          	lui	a3,0x40011
    102e:	4621                	li	a2,8
    1030:	ca90                	sw	a2,16(a3)
    1032:	8526                	mv	a0,s1
    1034:	ea0ff0ef          	jal	ra,6d4 <DelaySysTick>
    1038:	4792                	lw	a5,4(sp)
    103a:	c1840413          	addi	s0,s0,-1000
    103e:	4702                	lw	a4,0(sp)
    1040:	fa87f3e3          	bgeu	a5,s0,fe6 <JOY_sound+0x42>
    1044:	8c1d                	sub	s0,s0,a5
    1046:	b745                	j	fe6 <JOY_sound+0x42>

00001048 <WS2812BSimpleSend>:
    1048:	8f8ff2ef          	jal	t0,140 <__riscv_save_0>
    104c:	bfff0737          	lui	a4,0xbfff0
    1050:	84aa                	mv	s1,a0
    1052:	80070713          	addi	a4,a4,-2048 # bffef800 <__global_pointer$+0x9ffeeee0>
    1056:	40021537          	lui	a0,0x40021
    105a:	01852303          	lw	t1,24(a0) # 40021018 <__global_pointer$+0x200206f8>
    105e:	9726                	add	a4,a4,s1
    1060:	8729                	srai	a4,a4,0xa
    1062:	4291                	li	t0,4
    1064:	00e29733          	sll	a4,t0,a4
    1068:	00676733          	or	a4,a4,t1
    106c:	cd18                	sw	a4,24(a0)
    106e:	4088                	lw	a0,0(s1)
    1070:	00259313          	slli	t1,a1,0x2
    1074:	473d                	li	a4,15
    1076:	00671733          	sll	a4,a4,t1
    107a:	fff74713          	not	a4,a4
    107e:	8f69                	and	a4,a4,a0
    1080:	4509                	li	a0,2
    1082:	4405                	li	s0,1
    1084:	00651533          	sll	a0,a0,t1
    1088:	00b417b3          	sll	a5,s0,a1
    108c:	1131                	addi	sp,sp,-20
    108e:	8f49                	or	a4,a4,a0
    1090:	05c1                	addi	a1,a1,16
    1092:	c098                	sw	a4,0(s1)
    1094:	c03e                	sw	a5,0(sp)
    1096:	00b41433          	sll	s0,s0,a1
    109a:	00d607b3          	add	a5,a2,a3
    109e:	c880                	sw	s0,16(s1)
    10a0:	c23e                	sw	a5,4(sp)
    10a2:	4792                	lw	a5,4(sp)
    10a4:	00f61663          	bne	a2,a5,10b0 <WS2812BSimpleSend+0x68>
    10a8:	c880                	sw	s0,16(s1)
    10aa:	0151                	addi	sp,sp,20
    10ac:	89eff06f          	j	14a <__riscv_restore_0>
    10b0:	2218                	lbu	a4,0(a2)
    10b2:	46a1                	li	a3,8
    10b4:	01871593          	slli	a1,a4,0x18
    10b8:	85e1                	srai	a1,a1,0x18
    10ba:	c832                	sw	a2,16(sp)
    10bc:	c63a                	sw	a4,12(sp)
    10be:	c436                	sw	a3,8(sp)
    10c0:	0205d563          	bgez	a1,10ea <WS2812BSimpleSend+0xa2>
    10c4:	4782                	lw	a5,0(sp)
    10c6:	4565                	li	a0,25
    10c8:	c89c                	sw	a5,16(s1)
    10ca:	e0aff0ef          	jal	ra,6d4 <DelaySysTick>
    10ce:	4505                	li	a0,1
    10d0:	c880                	sw	s0,16(s1)
    10d2:	e02ff0ef          	jal	ra,6d4 <DelaySysTick>
    10d6:	46a2                	lw	a3,8(sp)
    10d8:	4732                	lw	a4,12(sp)
    10da:	4642                	lw	a2,16(sp)
    10dc:	0706                	slli	a4,a4,0x1
    10de:	16fd                	addi	a3,a3,-1
    10e0:	0ff77713          	andi	a4,a4,255
    10e4:	fae1                	bnez	a3,10b4 <WS2812BSimpleSend+0x6c>
    10e6:	0605                	addi	a2,a2,1
    10e8:	bf6d                	j	10a2 <WS2812BSimpleSend+0x5a>
    10ea:	300025f3          	csrr	a1,mstatus
    10ee:	f775f593          	andi	a1,a1,-137
    10f2:	30059073          	csrw	mstatus,a1
    10f6:	4782                	lw	a5,0(sp)
    10f8:	c89c                	sw	a5,16(s1)
    10fa:	0001                	nop
    10fc:	0001                	nop
    10fe:	0001                	nop
    1100:	0001                	nop
    1102:	c880                	sw	s0,16(s1)
    1104:	300025f3          	csrr	a1,mstatus
    1108:	0885e593          	ori	a1,a1,136
    110c:	30059073          	csrw	mstatus,a1
    1110:	453d                	li	a0,15
    1112:	dc2ff0ef          	jal	ra,6d4 <DelaySysTick>
    1116:	4642                	lw	a2,16(sp)
    1118:	4732                	lw	a4,12(sp)
    111a:	46a2                	lw	a3,8(sp)
    111c:	b7c1                	j	10dc <WS2812BSimpleSend+0x94>

0000111e <opGroupExtraction>:
    111e:	317c                	lbu	a5,7(a0)
    1120:	c391                	beqz	a5,1124 <opGroupExtraction+0x6>
    1122:	4789                	li	a5,2
    1124:	2178                	lbu	a4,6(a0)
    1126:	c319                	beqz	a4,112c <opGroupExtraction+0xe>
    1128:	0017e793          	ori	a5,a5,1
    112c:	853e                	mv	a0,a5
    112e:	8082                	ret

00001130 <opCodeExtraction>:
    1130:	471d                	li	a4,7
    1132:	4781                	li	a5,0
    1134:	461d                	li	a2,7
    1136:	4599                	li	a1,6
    1138:	4315                	li	t1,5
    113a:	4291                	li	t0,4
    113c:	4689                	li	a3,2
    113e:	00e503b3          	add	t2,a0,a4
    1142:	0003c383          	lbu	t2,0(t2)
    1146:	00038663          	beqz	t2,1152 <opCodeExtraction+0x22>
    114a:	00c71963          	bne	a4,a2,115c <opCodeExtraction+0x2c>
    114e:	0107e793          	ori	a5,a5,16
    1152:	177d                	addi	a4,a4,-1
    1154:	fed715e3          	bne	a4,a3,113e <opCodeExtraction+0xe>
    1158:	853e                	mv	a0,a5
    115a:	8082                	ret
    115c:	00b71563          	bne	a4,a1,1166 <opCodeExtraction+0x36>
    1160:	0087e793          	ori	a5,a5,8
    1164:	b7fd                	j	1152 <opCodeExtraction+0x22>
    1166:	00671563          	bne	a4,t1,1170 <opCodeExtraction+0x40>
    116a:	0047e793          	ori	a5,a5,4
    116e:	b7d5                	j	1152 <opCodeExtraction+0x22>
    1170:	00571563          	bne	a4,t0,117a <opCodeExtraction+0x4a>
    1174:	0027e793          	ori	a5,a5,2
    1178:	bfe9                	j	1152 <opCodeExtraction+0x22>
    117a:	0017e793          	ori	a5,a5,1
    117e:	bfd1                	j	1152 <opCodeExtraction+0x22>

00001180 <varExtraction>:
    1180:	213c                	lbu	a5,2(a0)
    1182:	c391                	beqz	a5,1186 <varExtraction+0x6>
    1184:	4791                	li	a5,4
    1186:	3118                	lbu	a4,1(a0)
    1188:	c319                	beqz	a4,118e <varExtraction+0xe>
    118a:	0027e793          	ori	a5,a5,2
    118e:	2118                	lbu	a4,0(a0)
    1190:	c319                	beqz	a4,1196 <varExtraction+0x16>
    1192:	0017e793          	ori	a5,a5,1
    1196:	853e                	mv	a0,a5
    1198:	8082                	ret

0000119a <logoDisplay>:
    119a:	fa7fe2ef          	jal	t0,140 <__riscv_save_0>
    119e:	200004b7          	lui	s1,0x20000
    11a2:	36a5                	jal	d0a <clear>
    11a4:	4401                	li	s0,0
    11a6:	01848493          	addi	s1,s1,24 # 20000018 <rv_coding_board>
    11aa:	00241713          	slli	a4,s0,0x2
    11ae:	9726                	add	a4,a4,s1
    11b0:	233c                	lbu	a5,2(a4)
    11b2:	330c                	lbu	a1,1(a4)
    11b4:	0ff47513          	andi	a0,s0,255
    11b8:	07a2                	slli	a5,a5,0x8
    11ba:	8fcd                	or	a5,a5,a1
    11bc:	332c                	lbu	a1,3(a4)
    11be:	0405                	addi	s0,s0,1
    11c0:	05c2                	slli	a1,a1,0x10
    11c2:	8ddd                	or	a1,a1,a5
    11c4:	3c49                	jal	c56 <set_color>
    11c6:	04000793          	li	a5,64
    11ca:	fef410e3          	bne	s0,a5,11aa <logoDisplay+0x10>
    11ce:	40011537          	lui	a0,0x40011
    11d2:	0c000693          	li	a3,192
    11d6:	a0818613          	addi	a2,gp,-1528 # 20000328 <led_array>
    11da:	4589                	li	a1,2
    11dc:	80050513          	addi	a0,a0,-2048 # 40010800 <__global_pointer$+0x2000fee0>
    11e0:	35a5                	jal	1048 <WS2812BSimpleSend>
    11e2:	f69fe06f          	j	14a <__riscv_restore_0>

000011e6 <is_storage_initialized>:
    11e6:	f5bfe2ef          	jal	t0,140 <__riscv_save_0>
    11ea:	1161                	addi	sp,sp,-8
    11ec:	4721                	li	a4,8
    11ee:	4581                	li	a1,0
    11f0:	868a                	mv	a3,sp
    11f2:	4605                	li	a2,1
    11f4:	05200513          	li	a0,82
    11f8:	811ff0ef          	jal	ra,a08 <i2c_read>
    11fc:	00003737          	lui	a4,0x3
    1200:	4781                	li	a5,0
    1202:	6f470713          	addi	a4,a4,1780 # 36f4 <colors+0x180>
    1206:	45a1                	li	a1,8
    1208:	00e786b3          	add	a3,a5,a4
    120c:	00f10633          	add	a2,sp,a5
    1210:	2210                	lbu	a2,0(a2)
    1212:	2294                	lbu	a3,0(a3)
    1214:	00d61963          	bne	a2,a3,1226 <is_storage_initialized+0x40>
    1218:	0785                	addi	a5,a5,1
    121a:	feb797e3          	bne	a5,a1,1208 <is_storage_initialized+0x22>
    121e:	4505                	li	a0,1
    1220:	0121                	addi	sp,sp,8
    1222:	f29fe06f          	j	14a <__riscv_restore_0>
    1226:	4501                	li	a0,0
    1228:	bfe5                	j	1220 <is_storage_initialized+0x3a>

0000122a <reset_storage>:
    122a:	f17fe2ef          	jal	t0,140 <__riscv_save_0>
    122e:	000036b7          	lui	a3,0x3
    1232:	1171                	addi	sp,sp,-4
    1234:	4721                	li	a4,8
    1236:	6f468693          	addi	a3,a3,1780 # 36f4 <colors+0x180>
    123a:	4605                	li	a2,1
    123c:	4581                	li	a1,0
    123e:	05200513          	li	a0,82
    1242:	eb0ff0ef          	jal	ra,8f2 <i2c_write>
    1246:	00023537          	lui	a0,0x23
    124a:	28050513          	addi	a0,a0,640 # 23280 <_data_lma+0x1f578>
    124e:	c86ff0ef          	jal	ra,6d4 <DelaySysTick>
    1252:	4421                	li	s0,8
    1254:	85a2                	mv	a1,s0
    1256:	4705                	li	a4,1
    1258:	868a                	mv	a3,sp
    125a:	4605                	li	a2,1
    125c:	05200513          	li	a0,82
    1260:	00010023          	sb	zero,0(sp)
    1264:	e8eff0ef          	jal	ra,8f2 <i2c_write>
    1268:	00023537          	lui	a0,0x23
    126c:	28050513          	addi	a0,a0,640 # 23280 <_data_lma+0x1f578>
    1270:	0405                	addi	s0,s0,1
    1272:	c62ff0ef          	jal	ra,6d4 <DelaySysTick>
    1276:	0442                	slli	s0,s0,0x10
    1278:	8041                	srli	s0,s0,0x10
    127a:	20000793          	li	a5,512
    127e:	fcf41be3          	bne	s0,a5,1254 <reset_storage+0x2a>
    1282:	00004537          	lui	a0,0x4
    1286:	8b850513          	addi	a0,a0,-1864 # 38b8 <colors+0x344>
    128a:	c06ff0ef          	jal	ra,690 <puts>
    128e:	0111                	addi	sp,sp,4
    1290:	ebbfe06f          	j	14a <__riscv_restore_0>

00001294 <init_storage>:
    1294:	eadfe2ef          	jal	t0,140 <__riscv_save_0>
    1298:	37b9                	jal	11e6 <is_storage_initialized>
    129a:	e911                	bnez	a0,12ae <init_storage+0x1a>
    129c:	3779                	jal	122a <reset_storage>
    129e:	00003537          	lui	a0,0x3
    12a2:	6c450513          	addi	a0,a0,1732 # 36c4 <colors+0x150>
    12a6:	beaff0ef          	jal	ra,690 <puts>
    12aa:	ea1fe06f          	j	14a <__riscv_restore_0>
    12ae:	00003537          	lui	a0,0x3
    12b2:	6d850513          	addi	a0,a0,1752 # 36d8 <colors+0x164>
    12b6:	bfc5                	j	12a6 <init_storage+0x12>

000012b8 <print_status_storage>:
    12b8:	e89fe2ef          	jal	t0,140 <__riscv_save_0>
    12bc:	00004537          	lui	a0,0x4
    12c0:	1171                	addi	sp,sp,-4
    12c2:	88450513          	addi	a0,a0,-1916 # 3884 <colors+0x310>
    12c6:	bcaff0ef          	jal	ra,690 <puts>
    12ca:	4401                	li	s0,0
    12cc:	000044b7          	lui	s1,0x4
    12d0:	01041593          	slli	a1,s0,0x10
    12d4:	4705                	li	a4,1
    12d6:	00310693          	addi	a3,sp,3
    12da:	4605                	li	a2,1
    12dc:	81c1                	srli	a1,a1,0x10
    12de:	05200513          	li	a0,82
    12e2:	000101a3          	sb	zero,3(sp)
    12e6:	f22ff0ef          	jal	ra,a08 <i2c_read>
    12ea:	85a2                	mv	a1,s0
    12ec:	89c48513          	addi	a0,s1,-1892 # 389c <colors+0x328>
    12f0:	ae2ff0ef          	jal	ra,5d2 <printf>
    12f4:	818c                	lbu	a1,3(sp)
    12f6:	00004537          	lui	a0,0x4
    12fa:	8a450513          	addi	a0,a0,-1884 # 38a4 <colors+0x330>
    12fe:	ad4ff0ef          	jal	ra,5d2 <printf>
    1302:	0405                	addi	s0,s0,1
    1304:	47a1                	li	a5,8
    1306:	fcf415e3          	bne	s0,a5,12d0 <print_status_storage+0x18>
    130a:	4529                	li	a0,10
    130c:	baeff0ef          	jal	ra,6ba <putchar>
    1310:	000044b7          	lui	s1,0x4
    1314:	01041593          	slli	a1,s0,0x10
    1318:	4705                	li	a4,1
    131a:	00310693          	addi	a3,sp,3
    131e:	4605                	li	a2,1
    1320:	81c1                	srli	a1,a1,0x10
    1322:	05200513          	li	a0,82
    1326:	000101a3          	sb	zero,3(sp)
    132a:	edeff0ef          	jal	ra,a08 <i2c_read>
    132e:	819c                	lbu	a5,3(sp)
    1330:	cb8d                	beqz	a5,1362 <print_status_storage+0xaa>
    1332:	00004537          	lui	a0,0x4
    1336:	85a2                	mv	a1,s0
    1338:	8ac50513          	addi	a0,a0,-1876 # 38ac <colors+0x338>
    133c:	a96ff0ef          	jal	ra,5d2 <printf>
    1340:	0405                	addi	s0,s0,1
    1342:	00f47793          	andi	a5,s0,15
    1346:	e781                	bnez	a5,134e <print_status_storage+0x96>
    1348:	4529                	li	a0,10
    134a:	b70ff0ef          	jal	ra,6ba <putchar>
    134e:	20000793          	li	a5,512
    1352:	fcf411e3          	bne	s0,a5,1314 <print_status_storage+0x5c>
    1356:	4529                	li	a0,10
    1358:	b62ff0ef          	jal	ra,6ba <putchar>
    135c:	0111                	addi	sp,sp,4
    135e:	dedfe06f          	j	14a <__riscv_restore_0>
    1362:	8b048513          	addi	a0,s1,-1872 # 38b0 <colors+0x33c>
    1366:	a6cff0ef          	jal	ra,5d2 <printf>
    136a:	bfd9                	j	1340 <print_status_storage+0x88>

0000136c <set_page_status>:
    136c:	dd5fe2ef          	jal	t0,140 <__riscv_save_0>
    1370:	1171                	addi	sp,sp,-4
    1372:	81cc                	sb	a1,3(sp)
    1374:	4785                	li	a5,1
    1376:	02b7f163          	bgeu	a5,a1,1398 <set_page_status+0x2c>
    137a:	00004537          	lui	a0,0x4
    137e:	bb450513          	addi	a0,a0,-1100 # 3bb4 <colors+0x640>
    1382:	a50ff0ef          	jal	ra,5d2 <printf>
    1386:	00004537          	lui	a0,0x4
    138a:	51c00593          	li	a1,1308
    138e:	bc850513          	addi	a0,a0,-1080 # 3bc8 <colors+0x654>
    1392:	a40ff0ef          	jal	ra,5d2 <printf>
    1396:	a001                	j	1396 <set_page_status+0x2a>
    1398:	ff850793          	addi	a5,a0,-8
    139c:	07c2                	slli	a5,a5,0x10
    139e:	83c1                	srli	a5,a5,0x10
    13a0:	1f700713          	li	a4,503
    13a4:	02f77263          	bgeu	a4,a5,13c8 <set_page_status+0x5c>
    13a8:	85aa                	mv	a1,a0
    13aa:	00004537          	lui	a0,0x4
    13ae:	bd450513          	addi	a0,a0,-1068 # 3bd4 <colors+0x660>
    13b2:	a20ff0ef          	jal	ra,5d2 <printf>
    13b6:	00004537          	lui	a0,0x4
    13ba:	52200593          	li	a1,1314
    13be:	bc850513          	addi	a0,a0,-1080 # 3bc8 <colors+0x654>
    13c2:	a10ff0ef          	jal	ra,5d2 <printf>
    13c6:	a001                	j	13c6 <set_page_status+0x5a>
    13c8:	00310693          	addi	a3,sp,3
    13cc:	85aa                	mv	a1,a0
    13ce:	4705                	li	a4,1
    13d0:	4605                	li	a2,1
    13d2:	05200513          	li	a0,82
    13d6:	d1cff0ef          	jal	ra,8f2 <i2c_write>
    13da:	00023537          	lui	a0,0x23
    13de:	28050513          	addi	a0,a0,640 # 23280 <_data_lma+0x1f578>
    13e2:	af2ff0ef          	jal	ra,6d4 <DelaySysTick>
    13e6:	0111                	addi	sp,sp,4
    13e8:	d63fe06f          	j	14a <__riscv_restore_0>

000013ec <is_page_used>:
    13ec:	d55fe2ef          	jal	t0,140 <__riscv_save_0>
    13f0:	ff850793          	addi	a5,a0,-8
    13f4:	07c2                	slli	a5,a5,0x10
    13f6:	83c1                	srli	a5,a5,0x10
    13f8:	1f700713          	li	a4,503
    13fc:	1171                	addi	sp,sp,-4
    13fe:	85aa                	mv	a1,a0
    1400:	02f77163          	bgeu	a4,a5,1422 <is_page_used+0x36>
    1404:	00004537          	lui	a0,0x4
    1408:	bd450513          	addi	a0,a0,-1068 # 3bd4 <colors+0x660>
    140c:	9c6ff0ef          	jal	ra,5d2 <printf>
    1410:	00004537          	lui	a0,0x4
    1414:	52e00593          	li	a1,1326
    1418:	bc850513          	addi	a0,a0,-1080 # 3bc8 <colors+0x654>
    141c:	9b6ff0ef          	jal	ra,5d2 <printf>
    1420:	a001                	j	1420 <is_page_used+0x34>
    1422:	00310693          	addi	a3,sp,3
    1426:	4705                	li	a4,1
    1428:	4605                	li	a2,1
    142a:	05200513          	li	a0,82
    142e:	000101a3          	sb	zero,3(sp)
    1432:	dd6ff0ef          	jal	ra,a08 <i2c_read>
    1436:	8188                	lbu	a0,3(sp)
    1438:	0111                	addi	sp,sp,4
    143a:	d11fe06f          	j	14a <__riscv_restore_0>

0000143e <calculate_page_no>:
    143e:	4785                	li	a5,1
    1440:	00f59963          	bne	a1,a5,1452 <calculate_page_no+0x14>
    1444:	00151793          	slli	a5,a0,0x1
    1448:	953e                	add	a0,a0,a5
    144a:	0521                	addi	a0,a0,8
    144c:	0542                	slli	a0,a0,0x10
    144e:	8141                	srli	a0,a0,0x10
    1450:	8082                	ret
    1452:	03650513          	addi	a0,a0,54
    1456:	bfdd                	j	144c <calculate_page_no+0xe>

00001458 <load_paint.part.11>:
    1458:	ce9fe2ef          	jal	t0,140 <__riscv_save_0>
    145c:	1161                	addi	sp,sp,-8
    145e:	c22e                	sw	a1,4(sp)
    1460:	85b2                	mv	a1,a2
    1462:	84aa                	mv	s1,a0
    1464:	c032                	sw	a2,0(sp)
    1466:	3fe1                	jal	143e <calculate_page_no>
    1468:	4682                	lw	a3,0(sp)
    146a:	862a                	mv	a2,a0
    146c:	842a                	mv	s0,a0
    146e:	00003537          	lui	a0,0x3
    1472:	85a6                	mv	a1,s1
    1474:	70050513          	addi	a0,a0,1792 # 3700 <colors+0x18c>
    1478:	95aff0ef          	jal	ra,5d2 <printf>
    147c:	8522                	mv	a0,s0
    147e:	37bd                	jal	13ec <is_page_used>
    1480:	4792                	lw	a5,4(sp)
    1482:	e10d                	bnez	a0,14a4 <load_paint.part.11+0x4c>
    1484:	00003537          	lui	a0,0x3
    1488:	85a6                	mv	a1,s1
    148a:	73050513          	addi	a0,a0,1840 # 3730 <colors+0x1bc>
    148e:	944ff0ef          	jal	ra,5d2 <printf>
    1492:	00004537          	lui	a0,0x4
    1496:	57a00593          	li	a1,1402
    149a:	bc850513          	addi	a0,a0,-1080 # 3bc8 <colors+0x654>
    149e:	934ff0ef          	jal	ra,5d2 <printf>
    14a2:	a001                	j	14a2 <load_paint.part.11+0x4a>
    14a4:	00641593          	slli	a1,s0,0x6
    14a8:	05c2                	slli	a1,a1,0x10
    14aa:	0c000713          	li	a4,192
    14ae:	86be                	mv	a3,a5
    14b0:	4605                	li	a2,1
    14b2:	81c1                	srli	a1,a1,0x10
    14b4:	05200513          	li	a0,82
    14b8:	f36ff0ef          	jal	ra,bee <i2c_read_pages>
    14bc:	85aa                	mv	a1,a0
    14be:	00003537          	lui	a0,0x3
    14c2:	74450513          	addi	a0,a0,1860 # 3744 <colors+0x1d0>
    14c6:	90cff0ef          	jal	ra,5d2 <printf>
    14ca:	00023537          	lui	a0,0x23
    14ce:	28050513          	addi	a0,a0,640 # 23280 <_data_lma+0x1f578>
    14d2:	a02ff0ef          	jal	ra,6d4 <DelaySysTick>
    14d6:	00003537          	lui	a0,0x3
    14da:	85a6                	mv	a1,s1
    14dc:	75c50513          	addi	a0,a0,1884 # 375c <colors+0x1e8>
    14e0:	8f2ff0ef          	jal	ra,5d2 <printf>
    14e4:	0121                	addi	sp,sp,8
    14e6:	c65fe06f          	j	14a <__riscv_restore_0>

000014ea <iconShow>:
    14ea:	c57fe2ef          	jal	t0,140 <__riscv_save_0>
    14ee:	1151                	addi	sp,sp,-12
    14f0:	81bff0ef          	jal	ra,d0a <clear>
    14f4:	4521                	li	a0,8
    14f6:	3ddd                	jal	13ec <is_page_used>
    14f8:	e521                	bnez	a0,1540 <iconShow+0x56>
    14fa:	00003537          	lui	a0,0x3
    14fe:	4581                	li	a1,0
    1500:	69c50513          	addi	a0,a0,1692 # 369c <colors+0x128>
    1504:	8ceff0ef          	jal	ra,5d2 <printf>
    1508:	4401                	li	s0,0
    150a:	47fd                	li	a5,31
    150c:	0ff47513          	andi	a0,s0,255
    1510:	0af40863          	beq	s0,a5,15c0 <iconShow+0xd6>
    1514:	0e87c263          	blt	a5,s0,15f8 <iconShow+0x10e>
    1518:	47cd                	li	a5,19
    151a:	0af40363          	beq	s0,a5,15c0 <iconShow+0xd6>
    151e:	0887c463          	blt	a5,s0,15a6 <iconShow+0xbc>
    1522:	47a5                	li	a5,9
    1524:	00f40763          	beq	s0,a5,1532 <iconShow+0x48>
    1528:	0687ca63          	blt	a5,s0,159c <iconShow+0xb2>
    152c:	4789                	li	a5,2
    152e:	10f41b63          	bne	s0,a5,1644 <iconShow+0x15a>
    1532:	06400793          	li	a5,100
    1536:	00011223          	sh	zero,4(sp)
    153a:	835c                	sb	a5,6(sp)
    153c:	4592                	lw	a1,4(sp)
    153e:	a841                	j	15ce <iconShow+0xe4>
    1540:	4525                	li	a0,9
    1542:	356d                	jal	13ec <is_page_used>
    1544:	d95d                	beqz	a0,14fa <iconShow+0x10>
    1546:	4529                	li	a0,10
    1548:	3555                	jal	13ec <is_page_used>
    154a:	d945                	beqz	a0,14fa <iconShow+0x10>
    154c:	00003537          	lui	a0,0x3
    1550:	4581                	li	a1,0
    1552:	6b050513          	addi	a0,a0,1712 # 36b0 <colors+0x13c>
    1556:	87cff0ef          	jal	ra,5d2 <printf>
    155a:	a0818593          	addi	a1,gp,-1528 # 20000328 <led_array>
    155e:	4605                	li	a2,1
    1560:	4501                	li	a0,0
    1562:	a0818413          	addi	s0,gp,-1528 # 20000328 <led_array>
    1566:	3dcd                	jal	1458 <load_paint.part.11>
    1568:	0c040493          	addi	s1,s0,192
    156c:	3008                	lbu	a0,1(s0)
    156e:	45a9                	li	a1,10
    1570:	040d                	addi	s0,s0,3
    1572:	c03fe0ef          	jal	ra,174 <__udivsi3>
    1576:	fea40f23          	sb	a0,-2(s0)
    157a:	ffd44503          	lbu	a0,-3(s0)
    157e:	45a9                	li	a1,10
    1580:	bf5fe0ef          	jal	ra,174 <__udivsi3>
    1584:	fea40ea3          	sb	a0,-3(s0)
    1588:	fff44503          	lbu	a0,-1(s0)
    158c:	45a9                	li	a1,10
    158e:	be7fe0ef          	jal	ra,174 <__udivsi3>
    1592:	fea40fa3          	sb	a0,-1(s0)
    1596:	fc941be3          	bne	s0,s1,156c <iconShow+0x82>
    159a:	a089                	j	15dc <iconShow+0xf2>
    159c:	47ad                	li	a5,11
    159e:	f8f40ae3          	beq	s0,a5,1532 <iconShow+0x48>
    15a2:	47c1                	li	a5,16
    15a4:	b769                	j	152e <iconShow+0x44>
    15a6:	47dd                	li	a5,23
    15a8:	00f40c63          	beq	s0,a5,15c0 <iconShow+0xd6>
    15ac:	0087c463          	blt	a5,s0,15b4 <iconShow+0xca>
    15b0:	47d1                	li	a5,20
    15b2:	bfb5                	j	152e <iconShow+0x44>
    15b4:	47e1                	li	a5,24
    15b6:	f6f40ee3          	beq	s0,a5,1532 <iconShow+0x48>
    15ba:	47f1                	li	a5,28
    15bc:	08f41463          	bne	s0,a5,1644 <iconShow+0x15a>
    15c0:	6799                	lui	a5,0x6
    15c2:	40078793          	addi	a5,a5,1024 # 6400 <_data_lma+0x26f8>
    15c6:	847c                	sh	a5,8(sp)
    15c8:	00010523          	sb	zero,10(sp)
    15cc:	45a2                	lw	a1,8(sp)
    15ce:	e88ff0ef          	jal	ra,c56 <set_color>
    15d2:	0405                	addi	s0,s0,1
    15d4:	04000793          	li	a5,64
    15d8:	f2f419e3          	bne	s0,a5,150a <iconShow+0x20>
    15dc:	40011537          	lui	a0,0x40011
    15e0:	0c000693          	li	a3,192
    15e4:	a0818613          	addi	a2,gp,-1528 # 20000328 <led_array>
    15e8:	4589                	li	a1,2
    15ea:	80050513          	addi	a0,a0,-2048 # 40010800 <__global_pointer$+0x2000fee0>
    15ee:	a5bff0ef          	jal	ra,1048 <WS2812BSimpleSend>
    15f2:	0131                	addi	sp,sp,12
    15f4:	b57fe06f          	j	14a <__riscv_restore_0>
    15f8:	02f00793          	li	a5,47
    15fc:	0287c663          	blt	a5,s0,1628 <iconShow+0x13e>
    1600:	02b00793          	li	a5,43
    1604:	faf45ee3          	bge	s0,a5,15c0 <iconShow+0xd6>
    1608:	02400793          	li	a5,36
    160c:	f2f403e3          	beq	s0,a5,1532 <iconShow+0x48>
    1610:	0087c563          	blt	a5,s0,161a <iconShow+0x130>
    1614:	02000793          	li	a5,32
    1618:	bf19                	j	152e <iconShow+0x44>
    161a:	02500793          	li	a5,37
    161e:	faf401e3          	beq	s0,a5,15c0 <iconShow+0xd6>
    1622:	02700793          	li	a5,39
    1626:	bf59                	j	15bc <iconShow+0xd2>
    1628:	03700793          	li	a5,55
    162c:	f8f40ae3          	beq	s0,a5,15c0 <iconShow+0xd6>
    1630:	0087c563          	blt	a5,s0,163a <iconShow+0x150>
    1634:	03300793          	li	a5,51
    1638:	b751                	j	15bc <iconShow+0xd2>
    163a:	fc440793          	addi	a5,s0,-60
    163e:	470d                	li	a4,3
    1640:	f8f770e3          	bgeu	a4,a5,15c0 <iconShow+0xd6>
    1644:	00011023          	sh	zero,0(sp)
    1648:	00010123          	sb	zero,2(sp)
    164c:	4582                	lw	a1,0(sp)
    164e:	b741                	j	15ce <iconShow+0xe4>

00001650 <save_paint>:
    1650:	af1fe2ef          	jal	t0,140 <__riscv_save_0>
    1654:	1161                	addi	sp,sp,-8
    1656:	c22e                	sw	a1,4(sp)
    1658:	47fd                	li	a5,31
    165a:	84aa                	mv	s1,a0
    165c:	02a7f263          	bgeu	a5,a0,1680 <save_paint+0x30>
    1660:	85aa                	mv	a1,a0
    1662:	00004537          	lui	a0,0x4
    1666:	b4c50513          	addi	a0,a0,-1204 # 3b4c <colors+0x5d8>
    166a:	f69fe0ef          	jal	ra,5d2 <printf>
    166e:	00004537          	lui	a0,0x4
    1672:	54500593          	li	a1,1349
    1676:	bc850513          	addi	a0,a0,-1080 # 3bc8 <colors+0x654>
    167a:	f59fe0ef          	jal	ra,5d2 <printf>
    167e:	a001                	j	167e <save_paint+0x2e>
    1680:	85b2                	mv	a1,a2
    1682:	3b75                	jal	143e <calculate_page_no>
    1684:	c02a                	sw	a0,0(sp)
    1686:	842a                	mv	s0,a0
    1688:	4782                	lw	a5,0(sp)
    168a:	00278713          	addi	a4,a5,2
    168e:	04875563          	bge	a4,s0,16d8 <save_paint+0x88>
    1692:	00679593          	slli	a1,a5,0x6
    1696:	4692                	lw	a3,4(sp)
    1698:	05c2                	slli	a1,a1,0x10
    169a:	0c000713          	li	a4,192
    169e:	4605                	li	a2,1
    16a0:	81c1                	srli	a1,a1,0x10
    16a2:	05200513          	li	a0,82
    16a6:	ce0ff0ef          	jal	ra,b86 <i2c_write_pages>
    16aa:	85aa                	mv	a1,a0
    16ac:	00004537          	lui	a0,0x4
    16b0:	b8c50513          	addi	a0,a0,-1140 # 3b8c <colors+0x618>
    16b4:	f1ffe0ef          	jal	ra,5d2 <printf>
    16b8:	00023537          	lui	a0,0x23
    16bc:	28050513          	addi	a0,a0,640 # 23280 <_data_lma+0x1f578>
    16c0:	814ff0ef          	jal	ra,6d4 <DelaySysTick>
    16c4:	00004537          	lui	a0,0x4
    16c8:	85a6                	mv	a1,s1
    16ca:	ba450513          	addi	a0,a0,-1116 # 3ba4 <colors+0x630>
    16ce:	f05fe0ef          	jal	ra,5d2 <printf>
    16d2:	0121                	addi	sp,sp,8
    16d4:	a77fe06f          	j	14a <__riscv_restore_0>
    16d8:	8522                	mv	a0,s0
    16da:	3b09                	jal	13ec <is_page_used>
    16dc:	cd11                	beqz	a0,16f8 <save_paint+0xa8>
    16de:	000047b7          	lui	a5,0x4
    16e2:	85a6                	mv	a1,s1
    16e4:	b6878513          	addi	a0,a5,-1176 # 3b68 <colors+0x5f4>
    16e8:	eebfe0ef          	jal	ra,5d2 <printf>
    16ec:	016e3537          	lui	a0,0x16e3
    16f0:	60050513          	addi	a0,a0,1536 # 16e3600 <_data_lma+0x16df8f8>
    16f4:	fe1fe0ef          	jal	ra,6d4 <DelaySysTick>
    16f8:	8522                	mv	a0,s0
    16fa:	4585                	li	a1,1
    16fc:	3985                	jal	136c <set_page_status>
    16fe:	00140793          	addi	a5,s0,1
    1702:	01079413          	slli	s0,a5,0x10
    1706:	8041                	srli	s0,s0,0x10
    1708:	b741                	j	1688 <save_paint+0x38>

0000170a <save_opCode>:
    170a:	a37fe2ef          	jal	t0,140 <__riscv_save_0>
    170e:	1171                	addi	sp,sp,-4
    1710:	c02e                	sw	a1,0(sp)
    1712:	1ff00713          	li	a4,511
    1716:	84aa                	mv	s1,a0
    1718:	02a77263          	bgeu	a4,a0,173c <save_opCode+0x32>
    171c:	85aa                	mv	a1,a0
    171e:	00004537          	lui	a0,0x4
    1722:	b4c50513          	addi	a0,a0,-1204 # 3b4c <colors+0x5d8>
    1726:	eadfe0ef          	jal	ra,5d2 <printf>
    172a:	00004537          	lui	a0,0x4
    172e:	55c00593          	li	a1,1372
    1732:	bc850513          	addi	a0,a0,-1080 # 3bc8 <colors+0x654>
    1736:	e9dfe0ef          	jal	ra,5d2 <printf>
    173a:	a001                	j	173a <save_opCode+0x30>
    173c:	03650413          	addi	s0,a0,54
    1740:	0442                	slli	s0,s0,0x10
    1742:	8041                	srli	s0,s0,0x10
    1744:	8522                	mv	a0,s0
    1746:	315d                	jal	13ec <is_page_used>
    1748:	cd11                	beqz	a0,1764 <save_opCode+0x5a>
    174a:	00004537          	lui	a0,0x4
    174e:	85a6                	mv	a1,s1
    1750:	af850513          	addi	a0,a0,-1288 # 3af8 <colors+0x584>
    1754:	e7ffe0ef          	jal	ra,5d2 <printf>
    1758:	016e3537          	lui	a0,0x16e3
    175c:	60050513          	addi	a0,a0,1536 # 16e3600 <_data_lma+0x16df8f8>
    1760:	f75fe0ef          	jal	ra,6d4 <DelaySysTick>
    1764:	8522                	mv	a0,s0
    1766:	4585                	li	a1,1
    1768:	3111                	jal	136c <set_page_status>
    176a:	4682                	lw	a3,0(sp)
    176c:	00641593          	slli	a1,s0,0x6
    1770:	05c2                	slli	a1,a1,0x10
    1772:	04000713          	li	a4,64
    1776:	4605                	li	a2,1
    1778:	81c1                	srli	a1,a1,0x10
    177a:	05200513          	li	a0,82
    177e:	c08ff0ef          	jal	ra,b86 <i2c_write_pages>
    1782:	85aa                	mv	a1,a0
    1784:	00004537          	lui	a0,0x4
    1788:	b2050513          	addi	a0,a0,-1248 # 3b20 <colors+0x5ac>
    178c:	e47fe0ef          	jal	ra,5d2 <printf>
    1790:	00023537          	lui	a0,0x23
    1794:	28050513          	addi	a0,a0,640 # 23280 <_data_lma+0x1f578>
    1798:	f3dfe0ef          	jal	ra,6d4 <DelaySysTick>
    179c:	00004537          	lui	a0,0x4
    17a0:	85a6                	mv	a1,s1
    17a2:	b3850513          	addi	a0,a0,-1224 # 3b38 <colors+0x5c4>
    17a6:	e2dfe0ef          	jal	ra,5d2 <printf>
    17aa:	0111                	addi	sp,sp,4
    17ac:	99ffe06f          	j	14a <__riscv_restore_0>

000017b0 <load_paint>:
    17b0:	991fe2ef          	jal	t0,140 <__riscv_save_0>
    17b4:	477d                	li	a4,31
    17b6:	02a77263          	bgeu	a4,a0,17da <load_paint+0x2a>
    17ba:	85aa                	mv	a1,a0
    17bc:	00004537          	lui	a0,0x4
    17c0:	b4c50513          	addi	a0,a0,-1204 # 3b4c <colors+0x5d8>
    17c4:	e0ffe0ef          	jal	ra,5d2 <printf>
    17c8:	00004537          	lui	a0,0x4
    17cc:	57100593          	li	a1,1393
    17d0:	bc850513          	addi	a0,a0,-1080 # 3bc8 <colors+0x654>
    17d4:	dfffe0ef          	jal	ra,5d2 <printf>
    17d8:	a001                	j	17d8 <load_paint+0x28>
    17da:	39bd                	jal	1458 <load_paint.part.11>
    17dc:	96ffe06f          	j	14a <__riscv_restore_0>

000017e0 <rvCodeRun>:
    17e0:	961fe2ef          	jal	t0,140 <__riscv_save_0>
    17e4:	200007b7          	lui	a5,0x20000
    17e8:	f5410113          	addi	sp,sp,-172
    17ec:	11c78793          	addi	a5,a5,284 # 2000011c <timeout_var_code>
    17f0:	c0be                	sw	a5,64(sp)
    17f2:	200007b7          	lui	a5,0x20000
    17f6:	11878793          	addi	a5,a5,280 # 20000118 <timeout_line_code>
    17fa:	c8aa                	sw	a0,80(sp)
    17fc:	ce3e                	sw	a5,28(sp)
    17fe:	c511                	beqz	a0,180a <rvCodeRun+0x2a>
    1800:	4706                	lw	a4,64(sp)
    1802:	4785                	li	a5,1
    1804:	c31c                	sw	a5,0(a4)
    1806:	4772                	lw	a4,28(sp)
    1808:	c31c                	sw	a5,0(a4)
    180a:	4671                	li	a2,28
    180c:	4581                	li	a1,0
    180e:	08a8                	addi	a0,sp,88
    1810:	bf7fe0ef          	jal	ra,406 <memset>
    1814:	4671                	li	a2,28
    1816:	4581                	li	a1,0
    1818:	18c8                	addi	a0,sp,116
    181a:	bedfe0ef          	jal	ra,406 <memset>
    181e:	4671                	li	a2,28
    1820:	4581                	li	a1,0
    1822:	0908                	addi	a0,sp,144
    1824:	be3fe0ef          	jal	ra,406 <memset>
    1828:	20000737          	lui	a4,0x20000
    182c:	02400793          	li	a5,36
    1830:	00f707a3          	sb	a5,15(a4) # 2000000f <pointerLocation>
    1834:	47f2                	lw	a5,28(sp)
    1836:	00f70713          	addi	a4,a4,15
    183a:	c03a                	sw	a4,0(sp)
    183c:	4384                	lw	s1,0(a5)
    183e:	4786                	lw	a5,64(sp)
    1840:	439c                	lw	a5,0(a5)
    1842:	de3e                	sw	a5,60(sp)
    1844:	200007b7          	lui	a5,0x20000
    1848:	01878413          	addi	s0,a5,24 # 20000018 <rv_coding_board>
    184c:	01878793          	addi	a5,a5,24
    1850:	c63e                	sw	a5,12(sp)
    1852:	200007b7          	lui	a5,0x20000
    1856:	11878793          	addi	a5,a5,280 # 20000118 <timeout_line_code>
    185a:	c4be                	sw	a5,72(sp)
    185c:	03000793          	li	a5,48
    1860:	a01c                	sb	a5,0(s0)
    1862:	bc418593          	addi	a1,gp,-1084 # 200004e4 <rvClearColor>
    1866:	00140513          	addi	a0,s0,1
    186a:	460d                	li	a2,3
    186c:	babfe0ef          	jal	ra,416 <memcpy>
    1870:	c2be                	sw	a5,68(sp)
    1872:	47a6                	lw	a5,72(sp)
    1874:	0411                	addi	s0,s0,4
    1876:	fef413e3          	bne	s0,a5,185c <rvCodeRun+0x7c>
    187a:	00004537          	lui	a0,0x4
    187e:	8c850513          	addi	a0,a0,-1848 # 38c8 <colors+0x354>
    1882:	e0ffe0ef          	jal	ra,690 <puts>
    1886:	ac818793          	addi	a5,gp,-1336 # 200003e8 <opCodeStorage>
    188a:	4401                	li	s0,0
    188c:	c23e                	sw	a5,4(sp)
    188e:	459d                	li	a1,7
    1890:	8522                	mv	a0,s0
    1892:	8dbfe0ef          	jal	ra,16c <__divsi3>
    1896:	00351793          	slli	a5,a0,0x3
    189a:	459d                	li	a1,7
    189c:	8f89                	sub	a5,a5,a0
    189e:	8522                	mv	a0,s0
    18a0:	c43e                	sw	a5,8(sp)
    18a2:	923fe0ef          	jal	ra,1c4 <__modsi3>
    18a6:	47a2                	lw	a5,8(sp)
    18a8:	4712                	lw	a4,4(sp)
    18aa:	97aa                	add	a5,a5,a0
    18ac:	078e                	slli	a5,a5,0x3
    18ae:	97ba                	add	a5,a5,a4
    18b0:	853e                	mv	a0,a5
    18b2:	c43e                	sw	a5,8(sp)
    18b4:	87dff0ef          	jal	ra,1130 <opCodeExtraction>
    18b8:	08bc                	addi	a5,sp,88
    18ba:	00878733          	add	a4,a5,s0
    18be:	47a2                	lw	a5,8(sp)
    18c0:	a308                	sb	a0,0(a4)
    18c2:	ca2a                	sw	a0,20(sp)
    18c4:	853e                	mv	a0,a5
    18c6:	c83e                	sw	a5,16(sp)
    18c8:	857ff0ef          	jal	ra,111e <opGroupExtraction>
    18cc:	091c                	addi	a5,sp,144
    18ce:	00878733          	add	a4,a5,s0
    18d2:	47c2                	lw	a5,16(sp)
    18d4:	a308                	sb	a0,0(a4)
    18d6:	c42a                	sw	a0,8(sp)
    18d8:	853e                	mv	a0,a5
    18da:	8a7ff0ef          	jal	ra,1180 <varExtraction>
    18de:	18dc                	addi	a5,sp,116
    18e0:	97a2                	add	a5,a5,s0
    18e2:	46d2                	lw	a3,20(sp)
    18e4:	45a2                	lw	a1,8(sp)
    18e6:	a388                	sb	a0,0(a5)
    18e8:	872a                	mv	a4,a0
    18ea:	00004537          	lui	a0,0x4
    18ee:	8622                	mv	a2,s0
    18f0:	8d450513          	addi	a0,a0,-1836 # 38d4 <colors+0x360>
    18f4:	cdffe0ef          	jal	ra,5d2 <printf>
    18f8:	0405                	addi	s0,s0,1
    18fa:	47f1                	li	a5,28
    18fc:	f8f419e3          	bne	s0,a5,188e <rvCodeRun+0xae>
    1900:	00004537          	lui	a0,0x4
    1904:	8fc50513          	addi	a0,a0,-1796 # 38fc <colors+0x388>
    1908:	d89fe0ef          	jal	ra,690 <puts>
    190c:	0c800793          	li	a5,200
    1910:	da3e                	sw	a5,52(sp)
    1912:	06400793          	li	a5,100
    1916:	c6be                	sw	a5,76(sp)
    1918:	4785                	li	a5,1
    191a:	d83e                	sw	a5,48(sp)
    191c:	4791                	li	a5,4
    191e:	d43e                	sw	a5,40(sp)
    1920:	d23e                	sw	a5,36(sp)
    1922:	479d                	li	a5,7
    1924:	cc3e                	sw	a5,24(sp)
    1926:	ca3e                	sw	a5,20(sp)
    1928:	c83e                	sw	a5,16(sp)
    192a:	47a1                	li	a5,8
    192c:	c402                	sw	zero,8(sp)
    192e:	d002                	sw	zero,32(sp)
    1930:	4401                	li	s0,0
    1932:	c202                	sw	zero,4(sp)
    1934:	d602                	sw	zero,44(sp)
    1936:	dc3e                	sw	a5,56(sp)
    1938:	57d2                	lw	a5,52(sp)
    193a:	14fd                	addi	s1,s1,-1
    193c:	17fd                	addi	a5,a5,-1
    193e:	da3e                	sw	a5,52(sp)
    1940:	e4b1                	bnez	s1,198c <rvCodeRun+0x1ac>
    1942:	47ed                	li	a5,27
    1944:	0487e463          	bltu	a5,s0,198c <rvCodeRun+0x1ac>
    1948:	117c                	addi	a5,sp,172
    194a:	97a2                	add	a5,a5,s0
    194c:	fe47c703          	lbu	a4,-28(a5)
    1950:	4685                	li	a3,1
    1952:	0ad71f63          	bne	a4,a3,1a10 <rvCodeRun+0x230>
    1956:	fac7c703          	lbu	a4,-84(a5)
    195a:	469d                	li	a3,7
    195c:	dc02                	sw	zero,56(sp)
    195e:	1761                	addi	a4,a4,-8
    1960:	0ff77713          	andi	a4,a4,255
    1964:	00e6e963          	bltu	a3,a4,1976 <rvCodeRun+0x196>
    1968:	668d                	lui	a3,0x3
    196a:	3bc68693          	addi	a3,a3,956 # 33bc <CSWTCH.132>
    196e:	9736                	add	a4,a4,a3
    1970:	00070703          	lb	a4,0(a4)
    1974:	dc3a                	sw	a4,56(sp)
    1976:	5702                	lw	a4,32(sp)
    1978:	eb11                	bnez	a4,198c <rvCodeRun+0x1ac>
    197a:	fc87c783          	lbu	a5,-56(a5)
    197e:	d03e                	sw	a5,32(sp)
    1980:	e791                	bnez	a5,198c <rvCodeRun+0x1ac>
    1982:	47f2                	lw	a5,28(sp)
    1984:	0405                	addi	s0,s0,1
    1986:	0ff47413          	andi	s0,s0,255
    198a:	4384                	lw	s1,0(a5)
    198c:	117c                	addi	a5,sp,172
    198e:	97a2                	add	a5,a5,s0
    1990:	fe47c783          	lbu	a5,-28(a5)
    1994:	4705                	li	a4,1
    1996:	50e79463          	bne	a5,a4,1e9e <rvCodeRun+0x6be>
    199a:	5702                	lw	a4,32(sp)
    199c:	50070163          	beqz	a4,1e9e <rvCodeRun+0x6be>
    19a0:	5772                	lw	a4,60(sp)
    19a2:	177d                	addi	a4,a4,-1
    19a4:	de3a                	sw	a4,60(sp)
    19a6:	4e071c63          	bnez	a4,1e9e <rvCodeRun+0x6be>
    19aa:	4702                	lw	a4,0(sp)
    19ac:	4692                	lw	a3,4(sp)
    19ae:	00070703          	lb	a4,0(a4)
    19b2:	de3a                	sw	a4,60(sp)
    19b4:	00271513          	slli	a0,a4,0x2
    19b8:	48f69463          	bne	a3,a5,1e40 <rvCodeRun+0x660>
    19bc:	47b2                	lw	a5,12(sp)
    19be:	200005b7          	lui	a1,0x20000
    19c2:	460d                	li	a2,3
    19c4:	953e                	add	a0,a0,a5
    19c6:	07800793          	li	a5,120
    19ca:	a11c                	sb	a5,0(a0)
    19cc:	01058593          	addi	a1,a1,16 # 20000010 <rvPendownColor>
    19d0:	0505                	addi	a0,a0,1
    19d2:	a45fe0ef          	jal	ra,416 <memcpy>
    19d6:	5772                	lw	a4,60(sp)
    19d8:	57e2                	lw	a5,56(sp)
    19da:	03f00693          	li	a3,63
    19de:	97ba                	add	a5,a5,a4
    19e0:	48f6e663          	bltu	a3,a5,1e6c <rvCodeRun+0x68c>
    19e4:	03814683          	lbu	a3,56(sp)
    19e8:	00168613          	addi	a2,a3,1
    19ec:	0fd67613          	andi	a2,a2,253
    19f0:	46061263          	bnez	a2,1e54 <rvCodeRun+0x674>
    19f4:	4037d613          	srai	a2,a5,0x3
    19f8:	41f75793          	srai	a5,a4,0x1f
    19fc:	8b9d                	andi	a5,a5,7
    19fe:	97ba                	add	a5,a5,a4
    1a00:	878d                	srai	a5,a5,0x3
    1a02:	46f61563          	bne	a2,a5,1e6c <rvCodeRun+0x68c>
    1a06:	00e687b3          	add	a5,a3,a4
    1a0a:	4702                	lw	a4,0(sp)
    1a0c:	a31c                	sb	a5,0(a4)
    1a0e:	a9b9                	j	1e6c <rvCodeRun+0x68c>
    1a10:	22071263          	bnez	a4,1c34 <rvCodeRun+0x454>
    1a14:	fac7c683          	lbu	a3,-84(a5)
    1a18:	461d                	li	a2,7
    1a1a:	f6d664e3          	bltu	a2,a3,1982 <rvCodeRun+0x1a2>
    1a1e:	660d                	lui	a2,0x3
    1a20:	068a                	slli	a3,a3,0x2
    1a22:	2f460613          	addi	a2,a2,756 # 32f4 <__udivdi3+0x4f4>
    1a26:	96b2                	add	a3,a3,a2
    1a28:	4294                	lw	a3,0(a3)
    1a2a:	8682                	jr	a3
    1a2c:	fc87c783          	lbu	a5,-56(a5)
    1a30:	17fd                	addi	a5,a5,-1
    1a32:	0017b793          	seqz	a5,a5
    1a36:	d83e                	sw	a5,48(sp)
    1a38:	b7a9                	j	1982 <rvCodeRun+0x1a2>
    1a3a:	4746                	lw	a4,80(sp)
    1a3c:	f339                	bnez	a4,1982 <rvCodeRun+0x1a2>
    1a3e:	fc878783          	lb	a5,-56(a5)
    1a42:	4686                	lw	a3,64(sp)
    1a44:	ffc78713          	addi	a4,a5,-4
    1a48:	00271793          	slli	a5,a4,0x2
    1a4c:	97ba                	add	a5,a5,a4
    1a4e:	078e                	slli	a5,a5,0x3
    1a50:	40f007b3          	neg	a5,a5
    1a54:	09678713          	addi	a4,a5,150
    1a58:	c298                	sw	a4,0(a3)
    1a5a:	4772                	lw	a4,28(sp)
    1a5c:	12c78793          	addi	a5,a5,300
    1a60:	c31c                	sw	a5,0(a4)
    1a62:	b705                	j	1982 <rvCodeRun+0x1a2>
    1a64:	fc87c703          	lbu	a4,-56(a5)
    1a68:	00171793          	slli	a5,a4,0x1
    1a6c:	97ba                	add	a5,a5,a4
    1a6e:	078e                	slli	a5,a5,0x3
    1a70:	97ba                	add	a5,a5,a4
    1a72:	078a                	slli	a5,a5,0x2
    1a74:	03278793          	addi	a5,a5,50
    1a78:	07c2                	slli	a5,a5,0x10
    1a7a:	83c1                	srli	a5,a5,0x10
    1a7c:	c6be                	sw	a5,76(sp)
    1a7e:	b711                	j	1982 <rvCodeRun+0x1a2>
    1a80:	fc87c783          	lbu	a5,-56(a5)
    1a84:	4719                	li	a4,6
    1a86:	10600513          	li	a0,262
    1a8a:	17fd                	addi	a5,a5,-1
    1a8c:	0ff7f793          	andi	a5,a5,255
    1a90:	00f76863          	bltu	a4,a5,1aa0 <rvCodeRun+0x2c0>
    1a94:	670d                	lui	a4,0x3
    1a96:	0786                	slli	a5,a5,0x1
    1a98:	3c470713          	addi	a4,a4,964 # 33c4 <CSWTCH.133>
    1a9c:	97ba                	add	a5,a5,a4
    1a9e:	238a                	lhu	a0,0(a5)
    1aa0:	45b6                	lw	a1,76(sp)
    1aa2:	d02ff0ef          	jal	ra,fa4 <JOY_sound>
    1aa6:	bdf1                	j	1982 <rvCodeRun+0x1a2>
    1aa8:	fc87c783          	lbu	a5,-56(a5)
    1aac:	c23e                	sw	a5,4(sp)
    1aae:	ec078ae3          	beqz	a5,1982 <rvCodeRun+0x1a2>
    1ab2:	0047f693          	andi	a3,a5,4
    1ab6:	4781                	li	a5,0
    1ab8:	ca81                	beqz	a3,1ac8 <rvCodeRun+0x2e8>
    1aba:	47c2                	lw	a5,16(sp)
    1abc:	46c2                	lw	a3,16(sp)
    1abe:	078e                	slli	a5,a5,0x3
    1ac0:	97b6                	add	a5,a5,a3
    1ac2:	078a                	slli	a5,a5,0x2
    1ac4:	0ff7f793          	andi	a5,a5,255
    1ac8:	20000637          	lui	a2,0x20000
    1acc:	01060693          	addi	a3,a2,16 # 20000010 <rvPendownColor>
    1ad0:	b29c                	sb	a5,1(a3)
    1ad2:	4792                	lw	a5,4(sp)
    1ad4:	0027f693          	andi	a3,a5,2
    1ad8:	01060793          	addi	a5,a2,16
    1adc:	ca81                	beqz	a3,1aec <rvCodeRun+0x30c>
    1ade:	4752                	lw	a4,20(sp)
    1ae0:	46d2                	lw	a3,20(sp)
    1ae2:	070e                	slli	a4,a4,0x3
    1ae4:	9736                	add	a4,a4,a3
    1ae6:	070a                	slli	a4,a4,0x2
    1ae8:	0ff77713          	andi	a4,a4,255
    1aec:	a398                	sb	a4,0(a5)
    1aee:	4712                	lw	a4,4(sp)
    1af0:	8b05                	andi	a4,a4,1
    1af2:	cb11                	beqz	a4,1b06 <rvCodeRun+0x326>
    1af4:	4762                	lw	a4,24(sp)
    1af6:	46e2                	lw	a3,24(sp)
    1af8:	070e                	slli	a4,a4,0x3
    1afa:	9736                	add	a4,a4,a3
    1afc:	070a                	slli	a4,a4,0x2
    1afe:	a3b8                	sb	a4,2(a5)
    1b00:	4785                	li	a5,1
    1b02:	c23e                	sw	a5,4(sp)
    1b04:	bdbd                	j	1982 <rvCodeRun+0x1a2>
    1b06:	00078123          	sb	zero,2(a5)
    1b0a:	bfdd                	j	1b00 <rvCodeRun+0x320>
    1b0c:	5742                	lw	a4,48(sp)
    1b0e:	cb05                	beqz	a4,1b3e <rvCodeRun+0x35e>
    1b10:	4702                	lw	a4,0(sp)
    1b12:	cabe                	sw	a5,84(sp)
    1b14:	56c2                	lw	a3,48(sp)
    1b16:	00070503          	lb	a0,0(a4)
    1b1a:	47b2                	lw	a5,12(sp)
    1b1c:	4712                	lw	a4,4(sp)
    1b1e:	050a                	slli	a0,a0,0x2
    1b20:	953e                	add	a0,a0,a5
    1b22:	02d71a63          	bne	a4,a3,1b56 <rvCodeRun+0x376>
    1b26:	03000713          	li	a4,48
    1b2a:	200005b7          	lui	a1,0x20000
    1b2e:	a118                	sb	a4,0(a0)
    1b30:	460d                	li	a2,3
    1b32:	01058593          	addi	a1,a1,16 # 20000010 <rvPendownColor>
    1b36:	0505                	addi	a0,a0,1
    1b38:	8dffe0ef          	jal	ra,416 <memcpy>
    1b3c:	47d6                	lw	a5,84(sp)
    1b3e:	fc87c783          	lbu	a5,-56(a5)
    1b42:	471d                	li	a4,7
    1b44:	02f76c63          	bltu	a4,a5,1b7c <rvCodeRun+0x39c>
    1b48:	670d                	lui	a4,0x3
    1b4a:	078a                	slli	a5,a5,0x2
    1b4c:	31470713          	addi	a4,a4,788 # 3314 <__udivdi3+0x514>
    1b50:	97ba                	add	a5,a5,a4
    1b52:	439c                	lw	a5,0(a5)
    1b54:	8782                	jr	a5
    1b56:	4796                	lw	a5,68(sp)
    1b58:	03000713          	li	a4,48
    1b5c:	a118                	sb	a4,0(a0)
    1b5e:	460d                	li	a2,3
    1b60:	bc418593          	addi	a1,gp,-1084 # 200004e4 <rvClearColor>
    1b64:	bfc9                	j	1b36 <rvCodeRun+0x356>
    1b66:	02400793          	li	a5,36
    1b6a:	4702                	lw	a4,0(sp)
    1b6c:	a31c                	sb	a5,0(a4)
    1b6e:	a039                	j	1b7c <rvCodeRun+0x39c>
    1b70:	03800793          	li	a5,56
    1b74:	bfdd                	j	1b6a <rvCodeRun+0x38a>
    1b76:	4782                	lw	a5,0(sp)
    1b78:	00078023          	sb	zero,0(a5)
    1b7c:	57c2                	lw	a5,48(sp)
    1b7e:	e00782e3          	beqz	a5,1982 <rvCodeRun+0x1a2>
    1b82:	4782                	lw	a5,0(sp)
    1b84:	200005b7          	lui	a1,0x20000
    1b88:	460d                	li	a2,3
    1b8a:	00078503          	lb	a0,0(a5)
    1b8e:	47b2                	lw	a5,12(sp)
    1b90:	01458593          	addi	a1,a1,20 # 20000014 <rvPointerColor>
    1b94:	050a                	slli	a0,a0,0x2
    1b96:	953e                	add	a0,a0,a5
    1b98:	05000793          	li	a5,80
    1b9c:	a11c                	sb	a5,0(a0)
    1b9e:	0505                	addi	a0,a0,1
    1ba0:	877fe0ef          	jal	ra,416 <memcpy>
    1ba4:	df6ff0ef          	jal	ra,119a <logoDisplay>
    1ba8:	bbe9                	j	1982 <rvCodeRun+0x1a2>
    1baa:	479d                	li	a5,7
    1bac:	bf7d                	j	1b6a <rvCodeRun+0x38a>
    1bae:	03f00793          	li	a5,63
    1bb2:	bf65                	j	1b6a <rvCodeRun+0x38a>
    1bb4:	57a2                	lw	a5,40(sp)
    1bb6:	5712                	lw	a4,36(sp)
    1bb8:	078e                	slli	a5,a5,0x3
    1bba:	8f99                	sub	a5,a5,a4
    1bbc:	079d                	addi	a5,a5,7
    1bbe:	b775                	j	1b6a <rvCodeRun+0x38a>
    1bc0:	fc87c683          	lbu	a3,-56(a5)
    1bc4:	4781                	li	a5,0
    1bc6:	0046f613          	andi	a2,a3,4
    1bca:	ca01                	beqz	a2,1bda <rvCodeRun+0x3fa>
    1bcc:	47c2                	lw	a5,16(sp)
    1bce:	4642                	lw	a2,16(sp)
    1bd0:	078e                	slli	a5,a5,0x3
    1bd2:	97b2                	add	a5,a5,a2
    1bd4:	078a                	slli	a5,a5,0x2
    1bd6:	0ff7f793          	andi	a5,a5,255
    1bda:	200004b7          	lui	s1,0x20000
    1bde:	01048613          	addi	a2,s1,16 # 20000010 <rvPendownColor>
    1be2:	b21c                	sb	a5,1(a2)
    1be4:	0026f593          	andi	a1,a3,2
    1be8:	4781                	li	a5,0
    1bea:	c981                	beqz	a1,1bfa <rvCodeRun+0x41a>
    1bec:	47d2                	lw	a5,20(sp)
    1bee:	45d2                	lw	a1,20(sp)
    1bf0:	078e                	slli	a5,a5,0x3
    1bf2:	97ae                	add	a5,a5,a1
    1bf4:	078a                	slli	a5,a5,0x2
    1bf6:	0ff7f793          	andi	a5,a5,255
    1bfa:	a21c                	sb	a5,0(a2)
    1bfc:	8a85                	andi	a3,a3,1
    1bfe:	ca81                	beqz	a3,1c0e <rvCodeRun+0x42e>
    1c00:	47e2                	lw	a5,24(sp)
    1c02:	00379713          	slli	a4,a5,0x3
    1c06:	973e                	add	a4,a4,a5
    1c08:	070a                	slli	a4,a4,0x2
    1c0a:	0ff77713          	andi	a4,a4,255
    1c0e:	47b2                	lw	a5,12(sp)
    1c10:	a238                	sb	a4,2(a2)
    1c12:	03000713          	li	a4,48
    1c16:	a398                	sb	a4,0(a5)
    1c18:	00178513          	addi	a0,a5,1
    1c1c:	460d                	li	a2,3
    1c1e:	01048593          	addi	a1,s1,16
    1c22:	cabe                	sw	a5,84(sp)
    1c24:	ff2fe0ef          	jal	ra,416 <memcpy>
    1c28:	47d6                	lw	a5,84(sp)
    1c2a:	4726                	lw	a4,72(sp)
    1c2c:	0791                	addi	a5,a5,4
    1c2e:	fee792e3          	bne	a5,a4,1c12 <rvCodeRun+0x432>
    1c32:	bb81                	j	1982 <rvCodeRun+0x1a2>
    1c34:	4689                	li	a3,2
    1c36:	0cd71c63          	bne	a4,a3,1d0e <rvCodeRun+0x52e>
    1c3a:	fac7c703          	lbu	a4,-84(a5)
    1c3e:	469d                	li	a3,7
    1c40:	1741                	addi	a4,a4,-16
    1c42:	0ff77713          	andi	a4,a4,255
    1c46:	d2e6eee3          	bltu	a3,a4,1982 <rvCodeRun+0x1a2>
    1c4a:	668d                	lui	a3,0x3
    1c4c:	070a                	slli	a4,a4,0x2
    1c4e:	33468693          	addi	a3,a3,820 # 3334 <__udivdi3+0x534>
    1c52:	9736                	add	a4,a4,a3
    1c54:	4318                	lw	a4,0(a4)
    1c56:	8702                	jr	a4
    1c58:	fc87c783          	lbu	a5,-56(a5)
    1c5c:	00004537          	lui	a0,0x4
    1c60:	90850513          	addi	a0,a0,-1784 # 3908 <colors+0x394>
    1c64:	85be                	mv	a1,a5
    1c66:	cabe                	sw	a5,84(sp)
    1c68:	96bfe0ef          	jal	ra,5d2 <printf>
    1c6c:	47d6                	lw	a5,84(sp)
    1c6e:	a0818593          	addi	a1,gp,-1528 # 20000328 <led_array>
    1c72:	853e                	mv	a0,a5
    1c74:	4605                	li	a2,1
    1c76:	b3bff0ef          	jal	ra,17b0 <load_paint>
    1c7a:	47b2                	lw	a5,12(sp)
    1c7c:	a0818493          	addi	s1,gp,-1528 # 20000328 <led_array>
    1c80:	07800713          	li	a4,120
    1c84:	a398                	sb	a4,0(a5)
    1c86:	85a6                	mv	a1,s1
    1c88:	00178513          	addi	a0,a5,1
    1c8c:	460d                	li	a2,3
    1c8e:	cabe                	sw	a5,84(sp)
    1c90:	f86fe0ef          	jal	ra,416 <memcpy>
    1c94:	47d6                	lw	a5,84(sp)
    1c96:	4726                	lw	a4,72(sp)
    1c98:	048d                	addi	s1,s1,3
    1c9a:	0791                	addi	a5,a5,4
    1c9c:	fef712e3          	bne	a4,a5,1c80 <rvCodeRun+0x4a0>
    1ca0:	b1cd                	j	1982 <rvCodeRun+0x1a2>
    1ca2:	fc87c403          	lbu	s0,-56(a5)
    1ca6:	00004537          	lui	a0,0x4
    1caa:	91850513          	addi	a0,a0,-1768 # 3918 <colors+0x3a4>
    1cae:	147d                	addi	s0,s0,-1
    1cb0:	0ff47413          	andi	s0,s0,255
    1cb4:	85a2                	mv	a1,s0
    1cb6:	91dfe0ef          	jal	ra,5d2 <printf>
    1cba:	b1e1                	j	1982 <rvCodeRun+0x1a2>
    1cbc:	fc87c403          	lbu	s0,-56(a5)
    1cc0:	00004537          	lui	a0,0x4
    1cc4:	93050513          	addi	a0,a0,-1744 # 3930 <colors+0x3bc>
    1cc8:	0419                	addi	s0,s0,6
    1cca:	0ff47413          	andi	s0,s0,255
    1cce:	85a2                	mv	a1,s0
    1cd0:	b7dd                	j	1cb6 <rvCodeRun+0x4d6>
    1cd2:	fc87c403          	lbu	s0,-56(a5)
    1cd6:	00004537          	lui	a0,0x4
    1cda:	94850513          	addi	a0,a0,-1720 # 3948 <colors+0x3d4>
    1cde:	0435                	addi	s0,s0,13
    1ce0:	0ff47413          	andi	s0,s0,255
    1ce4:	85a2                	mv	a1,s0
    1ce6:	bfc1                	j	1cb6 <rvCodeRun+0x4d6>
    1ce8:	fc87c403          	lbu	s0,-56(a5)
    1cec:	00004537          	lui	a0,0x4
    1cf0:	96050513          	addi	a0,a0,-1696 # 3960 <colors+0x3ec>
    1cf4:	0451                	addi	s0,s0,20
    1cf6:	0ff47413          	andi	s0,s0,255
    1cfa:	85a2                	mv	a1,s0
    1cfc:	bf6d                	j	1cb6 <rvCodeRun+0x4d6>
    1cfe:	00004537          	lui	a0,0x4
    1d02:	97850513          	addi	a0,a0,-1672 # 3978 <colors+0x404>
    1d06:	98bfe0ef          	jal	ra,690 <puts>
    1d0a:	4475                	li	s0,29
    1d0c:	b99d                	j	1982 <rvCodeRun+0x1a2>
    1d0e:	468d                	li	a3,3
    1d10:	c6d71ee3          	bne	a4,a3,198c <rvCodeRun+0x1ac>
    1d14:	fac7c683          	lbu	a3,-84(a5)
    1d18:	461d                	li	a2,7
    1d1a:	16a1                	addi	a3,a3,-24
    1d1c:	0ff6f693          	andi	a3,a3,255
    1d20:	c6d661e3          	bltu	a2,a3,1982 <rvCodeRun+0x1a2>
    1d24:	660d                	lui	a2,0x3
    1d26:	35460613          	addi	a2,a2,852 # 3354 <__udivdi3+0x554>
    1d2a:	068a                	slli	a3,a3,0x2
    1d2c:	96b2                	add	a3,a3,a2
    1d2e:	4294                	lw	a3,0(a3)
    1d30:	00140613          	addi	a2,s0,1
    1d34:	8682                	jr	a3
    1d36:	fc878783          	lb	a5,-56(a5)
    1d3a:	c83e                	sw	a5,16(sp)
    1d3c:	4785                	li	a5,1
    1d3e:	c43e                	sw	a5,8(sp)
    1d40:	b189                	j	1982 <rvCodeRun+0x1a2>
    1d42:	fc878783          	lb	a5,-56(a5)
    1d46:	ca3e                	sw	a5,20(sp)
    1d48:	4789                	li	a5,2
    1d4a:	bfd5                	j	1d3e <rvCodeRun+0x55e>
    1d4c:	fc878783          	lb	a5,-56(a5)
    1d50:	c43a                	sw	a4,8(sp)
    1d52:	cc3e                	sw	a5,24(sp)
    1d54:	b13d                	j	1982 <rvCodeRun+0x1a2>
    1d56:	fc878783          	lb	a5,-56(a5)
    1d5a:	d23e                	sw	a5,36(sp)
    1d5c:	4791                	li	a5,4
    1d5e:	b7c5                	j	1d3e <rvCodeRun+0x55e>
    1d60:	fc878783          	lb	a5,-56(a5)
    1d64:	d43e                	sw	a5,40(sp)
    1d66:	4795                	li	a5,5
    1d68:	bfd9                	j	1d3e <rvCodeRun+0x55e>
    1d6a:	fc878783          	lb	a5,-56(a5)
    1d6e:	d63e                	sw	a5,44(sp)
    1d70:	4799                	li	a5,6
    1d72:	b7f1                	j	1d3e <rvCodeRun+0x55e>
    1d74:	4722                	lw	a4,8(sp)
    1d76:	4515                	li	a0,5
    1d78:	fff70693          	addi	a3,a4,-1
    1d7c:	0ff6f593          	andi	a1,a3,255
    1d80:	4701                	li	a4,0
    1d82:	00b56a63          	bltu	a0,a1,1d96 <rvCodeRun+0x5b6>
    1d86:	670d                	lui	a4,0x3
    1d88:	37470713          	addi	a4,a4,884 # 3374 <__udivdi3+0x574>
    1d8c:	058a                	slli	a1,a1,0x2
    1d8e:	95ba                	add	a1,a1,a4
    1d90:	4198                	lw	a4,0(a1)
    1d92:	8702                	jr	a4
    1d94:	4742                	lw	a4,16(sp)
    1d96:	fc87c783          	lbu	a5,-56(a5)
    1d9a:	40f707b3          	sub	a5,a4,a5
    1d9e:	07e2                	slli	a5,a5,0x18
    1da0:	87e1                	srai	a5,a5,0x18
    1da2:	0007d463          	bgez	a5,1daa <rvCodeRun+0x5ca>
    1da6:	0ff67413          	andi	s0,a2,255
    1daa:	0ff6f713          	andi	a4,a3,255
    1dae:	4695                	li	a3,5
    1db0:	08e6e663          	bltu	a3,a4,1e3c <rvCodeRun+0x65c>
    1db4:	668d                	lui	a3,0x3
    1db6:	070a                	slli	a4,a4,0x2
    1db8:	38c68693          	addi	a3,a3,908 # 338c <__udivdi3+0x58c>
    1dbc:	9736                	add	a4,a4,a3
    1dbe:	4318                	lw	a4,0(a4)
    1dc0:	8702                	jr	a4
    1dc2:	4752                	lw	a4,20(sp)
    1dc4:	bfc9                	j	1d96 <rvCodeRun+0x5b6>
    1dc6:	4762                	lw	a4,24(sp)
    1dc8:	b7f9                	j	1d96 <rvCodeRun+0x5b6>
    1dca:	5712                	lw	a4,36(sp)
    1dcc:	b7e9                	j	1d96 <rvCodeRun+0x5b6>
    1dce:	5722                	lw	a4,40(sp)
    1dd0:	b7d9                	j	1d96 <rvCodeRun+0x5b6>
    1dd2:	5732                	lw	a4,44(sp)
    1dd4:	b7c9                	j	1d96 <rvCodeRun+0x5b6>
    1dd6:	4722                	lw	a4,8(sp)
    1dd8:	4515                	li	a0,5
    1dda:	4681                	li	a3,0
    1ddc:	177d                	addi	a4,a4,-1
    1dde:	0ff77593          	andi	a1,a4,255
    1de2:	00b56a63          	bltu	a0,a1,1df6 <rvCodeRun+0x616>
    1de6:	668d                	lui	a3,0x3
    1de8:	3a468693          	addi	a3,a3,932 # 33a4 <__udivdi3+0x5a4>
    1dec:	058a                	slli	a1,a1,0x2
    1dee:	95b6                	add	a1,a1,a3
    1df0:	4194                	lw	a3,0(a1)
    1df2:	8682                	jr	a3
    1df4:	46c2                	lw	a3,16(sp)
    1df6:	fc87c783          	lbu	a5,-56(a5)
    1dfa:	97b6                	add	a5,a5,a3
    1dfc:	07e2                	slli	a5,a5,0x18
    1dfe:	87e1                	srai	a5,a5,0x18
    1e00:	469d                	li	a3,7
    1e02:	00f6d463          	bge	a3,a5,1e0a <rvCodeRun+0x62a>
    1e06:	0ff67413          	andi	s0,a2,255
    1e0a:	0ff77713          	andi	a4,a4,255
    1e0e:	b745                	j	1dae <rvCodeRun+0x5ce>
    1e10:	46d2                	lw	a3,20(sp)
    1e12:	b7d5                	j	1df6 <rvCodeRun+0x616>
    1e14:	46e2                	lw	a3,24(sp)
    1e16:	b7c5                	j	1df6 <rvCodeRun+0x616>
    1e18:	5692                	lw	a3,36(sp)
    1e1a:	bff1                	j	1df6 <rvCodeRun+0x616>
    1e1c:	56a2                	lw	a3,40(sp)
    1e1e:	bfe1                	j	1df6 <rvCodeRun+0x616>
    1e20:	56b2                	lw	a3,44(sp)
    1e22:	bfd1                	j	1df6 <rvCodeRun+0x616>
    1e24:	c83e                	sw	a5,16(sp)
    1e26:	beb1                	j	1982 <rvCodeRun+0x1a2>
    1e28:	ca3e                	sw	a5,20(sp)
    1e2a:	bea1                	j	1982 <rvCodeRun+0x1a2>
    1e2c:	cc3e                	sw	a5,24(sp)
    1e2e:	be91                	j	1982 <rvCodeRun+0x1a2>
    1e30:	d23e                	sw	a5,36(sp)
    1e32:	be81                	j	1982 <rvCodeRun+0x1a2>
    1e34:	d43e                	sw	a5,40(sp)
    1e36:	b6b1                	j	1982 <rvCodeRun+0x1a2>
    1e38:	d63e                	sw	a5,44(sp)
    1e3a:	b6a1                	j	1982 <rvCodeRun+0x1a2>
    1e3c:	c402                	sw	zero,8(sp)
    1e3e:	b691                	j	1982 <rvCodeRun+0x1a2>
    1e40:	47b2                	lw	a5,12(sp)
    1e42:	460d                	li	a2,3
    1e44:	953e                	add	a0,a0,a5
    1e46:	03000793          	li	a5,48
    1e4a:	a11c                	sb	a5,0(a0)
    1e4c:	4796                	lw	a5,68(sp)
    1e4e:	bc418593          	addi	a1,gp,-1084 # 200004e4 <rvClearColor>
    1e52:	bebd                	j	19d0 <rvCodeRun+0x1f0>
    1e54:	00968793          	addi	a5,a3,9
    1e58:	0ef7f793          	andi	a5,a5,239
    1e5c:	e3cd                	bnez	a5,1efe <rvCodeRun+0x71e>
    1e5e:	0ff77793          	andi	a5,a4,255
    1e62:	0077f713          	andi	a4,a5,7
    1e66:	97b6                	add	a5,a5,a3
    1e68:	ba0711e3          	bnez	a4,1a0a <rvCodeRun+0x22a>
    1e6c:	5782                	lw	a5,32(sp)
    1e6e:	17fd                	addi	a5,a5,-1
    1e70:	0ff7f793          	andi	a5,a5,255
    1e74:	d03e                	sw	a5,32(sp)
    1e76:	4786                	lw	a5,64(sp)
    1e78:	439c                	lw	a5,0(a5)
    1e7a:	de3e                	sw	a5,60(sp)
    1e7c:	5782                	lw	a5,32(sp)
    1e7e:	e385                	bnez	a5,1e9e <rvCodeRun+0x6be>
    1e80:	4782                	lw	a5,0(sp)
    1e82:	00004537          	lui	a0,0x4
    1e86:	85a2                	mv	a1,s0
    1e88:	00078603          	lb	a2,0(a5)
    1e8c:	98450513          	addi	a0,a0,-1660 # 3984 <colors+0x410>
    1e90:	0405                	addi	s0,s0,1
    1e92:	f40fe0ef          	jal	ra,5d2 <printf>
    1e96:	47f2                	lw	a5,28(sp)
    1e98:	0ff47413          	andi	s0,s0,255
    1e9c:	4384                	lw	s1,0(a5)
    1e9e:	5752                	lw	a4,52(sp)
    1ea0:	06400793          	li	a5,100
    1ea4:	08f71363          	bne	a4,a5,1f2a <rvCodeRun+0x74a>
    1ea8:	57c2                	lw	a5,48(sp)
    1eaa:	c395                	beqz	a5,1ece <rvCodeRun+0x6ee>
    1eac:	4782                	lw	a5,0(sp)
    1eae:	200005b7          	lui	a1,0x20000
    1eb2:	460d                	li	a2,3
    1eb4:	00078503          	lb	a0,0(a5)
    1eb8:	47b2                	lw	a5,12(sp)
    1eba:	01458593          	addi	a1,a1,20 # 20000014 <rvPointerColor>
    1ebe:	050a                	slli	a0,a0,0x2
    1ec0:	953e                	add	a0,a0,a5
    1ec2:	05000793          	li	a5,80
    1ec6:	a11c                	sb	a5,0(a0)
    1ec8:	0505                	addi	a0,a0,1
    1eca:	d4cfe0ef          	jal	ra,416 <memcpy>
    1ece:	accff0ef          	jal	ra,119a <logoDisplay>
    1ed2:	00001537          	lui	a0,0x1
    1ed6:	4595                	li	a1,5
    1ed8:	d6050513          	addi	a0,a0,-672 # d60 <ADC_read_smallboard>
    1edc:	e8ffe0ef          	jal	ra,d6a <multiple_ADC_reads>
    1ee0:	edffe0ef          	jal	ra,dbe <JOY_check_button>
    1ee4:	57f1                	li	a5,-4
    1ee6:	a4f519e3          	bne	a0,a5,1938 <rvCodeRun+0x158>
    1eea:	00004537          	lui	a0,0x4
    1eee:	9b450513          	addi	a0,a0,-1612 # 39b4 <colors+0x440>
    1ef2:	f9efe0ef          	jal	ra,690 <puts>
    1ef6:	0ac10113          	addi	sp,sp,172
    1efa:	a50fe06f          	j	14a <__riscv_restore_0>
    1efe:	00768793          	addi	a5,a3,7
    1f02:	0ef7f793          	andi	a5,a5,239
    1f06:	b00790e3          	bnez	a5,1a06 <rvCodeRun+0x226>
    1f0a:	800007b7          	lui	a5,0x80000
    1f0e:	079d                	addi	a5,a5,7
    1f10:	8ff9                	and	a5,a5,a4
    1f12:	0007d663          	bgez	a5,1f1e <rvCodeRun+0x73e>
    1f16:	17fd                	addi	a5,a5,-1
    1f18:	ff87e793          	ori	a5,a5,-8
    1f1c:	0785                	addi	a5,a5,1
    1f1e:	07e2                	slli	a5,a5,0x18
    1f20:	87e1                	srai	a5,a5,0x18
    1f22:	461d                	li	a2,7
    1f24:	aec791e3          	bne	a5,a2,1a06 <rvCodeRun+0x226>
    1f28:	b791                	j	1e6c <rvCodeRun+0x68c>
    1f2a:	57d2                	lw	a5,52(sp)
    1f2c:	f3dd                	bnez	a5,1ed2 <rvCodeRun+0x6f2>
    1f2e:	4782                	lw	a5,0(sp)
    1f30:	4712                	lw	a4,4(sp)
    1f32:	00078503          	lb	a0,0(a5) # 80000000 <__global_pointer$+0x5ffff6e0>
    1f36:	4785                	li	a5,1
    1f38:	050a                	slli	a0,a0,0x2
    1f3a:	02f71563          	bne	a4,a5,1f64 <rvCodeRun+0x784>
    1f3e:	47b2                	lw	a5,12(sp)
    1f40:	200005b7          	lui	a1,0x20000
    1f44:	460d                	li	a2,3
    1f46:	953e                	add	a0,a0,a5
    1f48:	07800793          	li	a5,120
    1f4c:	a11c                	sb	a5,0(a0)
    1f4e:	01058593          	addi	a1,a1,16 # 20000010 <rvPendownColor>
    1f52:	0505                	addi	a0,a0,1
    1f54:	cc2fe0ef          	jal	ra,416 <memcpy>
    1f58:	a42ff0ef          	jal	ra,119a <logoDisplay>
    1f5c:	0c800793          	li	a5,200
    1f60:	da3e                	sw	a5,52(sp)
    1f62:	bf85                	j	1ed2 <rvCodeRun+0x6f2>
    1f64:	47b2                	lw	a5,12(sp)
    1f66:	460d                	li	a2,3
    1f68:	953e                	add	a0,a0,a5
    1f6a:	03000793          	li	a5,48
    1f6e:	a11c                	sb	a5,0(a0)
    1f70:	4796                	lw	a5,68(sp)
    1f72:	bc418593          	addi	a1,gp,-1084 # 200004e4 <rvClearColor>
    1f76:	bff1                	j	1f52 <rvCodeRun+0x772>

00001f78 <load_opCode>:
    1f78:	9c8fe2ef          	jal	t0,140 <__riscv_save_0>
    1f7c:	1ff00713          	li	a4,511
    1f80:	1171                	addi	sp,sp,-4
    1f82:	84aa                	mv	s1,a0
    1f84:	02a77263          	bgeu	a4,a0,1fa8 <load_opCode+0x30>
    1f88:	85aa                	mv	a1,a0
    1f8a:	00004537          	lui	a0,0x4
    1f8e:	b4c50513          	addi	a0,a0,-1204 # 3b4c <colors+0x5d8>
    1f92:	e40fe0ef          	jal	ra,5d2 <printf>
    1f96:	00004537          	lui	a0,0x4
    1f9a:	58800593          	li	a1,1416
    1f9e:	bc850513          	addi	a0,a0,-1080 # 3bc8 <colors+0x654>
    1fa2:	e30fe0ef          	jal	ra,5d2 <printf>
    1fa6:	a001                	j	1fa6 <load_opCode+0x2e>
    1fa8:	03650413          	addi	s0,a0,54
    1fac:	0442                	slli	s0,s0,0x10
    1fae:	c02e                	sw	a1,0(sp)
    1fb0:	8041                	srli	s0,s0,0x10
    1fb2:	85aa                	mv	a1,a0
    1fb4:	00003537          	lui	a0,0x3
    1fb8:	4681                	li	a3,0
    1fba:	8622                	mv	a2,s0
    1fbc:	70050513          	addi	a0,a0,1792 # 3700 <colors+0x18c>
    1fc0:	e12fe0ef          	jal	ra,5d2 <printf>
    1fc4:	8522                	mv	a0,s0
    1fc6:	c26ff0ef          	jal	ra,13ec <is_page_used>
    1fca:	4782                	lw	a5,0(sp)
    1fcc:	e10d                	bnez	a0,1fee <load_opCode+0x76>
    1fce:	00003537          	lui	a0,0x3
    1fd2:	85a6                	mv	a1,s1
    1fd4:	73050513          	addi	a0,a0,1840 # 3730 <colors+0x1bc>
    1fd8:	dfafe0ef          	jal	ra,5d2 <printf>
    1fdc:	00004537          	lui	a0,0x4
    1fe0:	59000593          	li	a1,1424
    1fe4:	bc850513          	addi	a0,a0,-1080 # 3bc8 <colors+0x654>
    1fe8:	deafe0ef          	jal	ra,5d2 <printf>
    1fec:	a001                	j	1fec <load_opCode+0x74>
    1fee:	00641593          	slli	a1,s0,0x6
    1ff2:	05c2                	slli	a1,a1,0x10
    1ff4:	04000713          	li	a4,64
    1ff8:	86be                	mv	a3,a5
    1ffa:	4605                	li	a2,1
    1ffc:	81c1                	srli	a1,a1,0x10
    1ffe:	05200513          	li	a0,82
    2002:	bedfe0ef          	jal	ra,bee <i2c_read_pages>
    2006:	85aa                	mv	a1,a0
    2008:	00003537          	lui	a0,0x3
    200c:	74450513          	addi	a0,a0,1860 # 3744 <colors+0x1d0>
    2010:	dc2fe0ef          	jal	ra,5d2 <printf>
    2014:	00023537          	lui	a0,0x23
    2018:	28050513          	addi	a0,a0,640 # 23280 <_data_lma+0x1f578>
    201c:	eb8fe0ef          	jal	ra,6d4 <DelaySysTick>
    2020:	00003537          	lui	a0,0x3
    2024:	85a6                	mv	a1,s1
    2026:	75c50513          	addi	a0,a0,1884 # 375c <colors+0x1e8>
    202a:	da8fe0ef          	jal	ra,5d2 <printf>
    202e:	0111                	addi	sp,sp,4
    2030:	91afe06f          	j	14a <__riscv_restore_0>

00002034 <led_display_paint_page_status>:
    2034:	90cfe2ef          	jal	t0,140 <__riscv_save_0>
    2038:	1161                	addi	sp,sp,-8
    203a:	c02a                	sw	a0,0(sp)
    203c:	ccffe0ef          	jal	ra,d0a <clear>
    2040:	4502                	lw	a0,0(sp)
    2042:	47a5                	li	a5,9
    2044:	08f51063          	bne	a0,a5,20c4 <led_display_paint_page_status+0x90>
    2048:	4401                	li	s0,0
    204a:	01041493          	slli	s1,s0,0x10
    204e:	80c1                	srli	s1,s1,0x10
    2050:	00848513          	addi	a0,s1,8
    2054:	0542                	slli	a0,a0,0x10
    2056:	8141                	srli	a0,a0,0x10
    2058:	b94ff0ef          	jal	ra,13ec <is_page_used>
    205c:	c22a                	sw	a0,4(sp)
    205e:	458d                	li	a1,3
    2060:	8522                	mv	a0,s0
    2062:	90afe0ef          	jal	ra,16c <__divsi3>
    2066:	4712                	lw	a4,4(sp)
    2068:	0ff57793          	andi	a5,a0,255
    206c:	c03e                	sw	a5,0(sp)
    206e:	c739                	beqz	a4,20bc <led_display_paint_page_status+0x88>
    2070:	00948513          	addi	a0,s1,9
    2074:	0542                	slli	a0,a0,0x10
    2076:	8141                	srli	a0,a0,0x10
    2078:	b74ff0ef          	jal	ra,13ec <is_page_used>
    207c:	c121                	beqz	a0,20bc <led_display_paint_page_status+0x88>
    207e:	00a48513          	addi	a0,s1,10
    2082:	0542                	slli	a0,a0,0x10
    2084:	8141                	srli	a0,a0,0x10
    2086:	b66ff0ef          	jal	ra,13ec <is_page_used>
    208a:	c90d                	beqz	a0,20bc <led_display_paint_page_status+0x88>
    208c:	678d                	lui	a5,0x3
    208e:	5707a583          	lw	a1,1392(a5) # 3570 <color_savefile_exist>
    2092:	4502                	lw	a0,0(sp)
    2094:	040d                	addi	s0,s0,3
    2096:	bc1fe0ef          	jal	ra,c56 <set_color>
    209a:	47e1                	li	a5,24
    209c:	faf417e3          	bne	s0,a5,204a <led_display_paint_page_status+0x16>
    20a0:	40011537          	lui	a0,0x40011
    20a4:	0c000693          	li	a3,192
    20a8:	a0818613          	addi	a2,gp,-1528 # 20000328 <led_array>
    20ac:	4589                	li	a1,2
    20ae:	80050513          	addi	a0,a0,-2048 # 40010800 <__global_pointer$+0x2000fee0>
    20b2:	f97fe0ef          	jal	ra,1048 <WS2812BSimpleSend>
    20b6:	0121                	addi	sp,sp,8
    20b8:	892fe06f          	j	14a <__riscv_restore_0>
    20bc:	678d                	lui	a5,0x3
    20be:	56c7a583          	lw	a1,1388(a5) # 356c <color_savefile_empty>
    20c2:	bfc1                	j	2092 <led_display_paint_page_status+0x5e>
    20c4:	479d                	li	a5,7
    20c6:	fcf51de3          	bne	a0,a5,20a0 <led_display_paint_page_status+0x6c>
    20ca:	4401                	li	s0,0
    20cc:	648d                	lui	s1,0x3
    20ce:	03640513          	addi	a0,s0,54
    20d2:	0542                	slli	a0,a0,0x10
    20d4:	8141                	srli	a0,a0,0x10
    20d6:	b16ff0ef          	jal	ra,13ec <is_page_used>
    20da:	0ff47793          	andi	a5,s0,255
    20de:	cd11                	beqz	a0,20fa <led_display_paint_page_status+0xc6>
    20e0:	670d                	lui	a4,0x3
    20e2:	57072583          	lw	a1,1392(a4) # 3570 <color_savefile_exist>
    20e6:	853e                	mv	a0,a5
    20e8:	0405                	addi	s0,s0,1
    20ea:	b6dfe0ef          	jal	ra,c56 <set_color>
    20ee:	0442                	slli	s0,s0,0x10
    20f0:	8041                	srli	s0,s0,0x10
    20f2:	47a1                	li	a5,8
    20f4:	fcf41de3          	bne	s0,a5,20ce <led_display_paint_page_status+0x9a>
    20f8:	b765                	j	20a0 <led_display_paint_page_status+0x6c>
    20fa:	56c4a583          	lw	a1,1388(s1) # 356c <color_savefile_empty>
    20fe:	b7e5                	j	20e6 <led_display_paint_page_status+0xb2>

00002100 <erase_all_paint_saves>:
    2100:	840fe2ef          	jal	t0,140 <__riscv_save_0>
    2104:	1171                	addi	sp,sp,-4
    2106:	4421                	li	s0,8
    2108:	000034b7          	lui	s1,0x3
    210c:	4581                	li	a1,0
    210e:	8522                	mv	a0,s0
    2110:	a5cff0ef          	jal	ra,136c <set_page_status>
    2114:	8522                	mv	a0,s0
    2116:	ad6ff0ef          	jal	ra,13ec <is_page_used>
    211a:	85aa                	mv	a1,a0
    211c:	64c48513          	addi	a0,s1,1612 # 364c <colors+0xd8>
    2120:	cb2fe0ef          	jal	ra,5d2 <printf>
    2124:	00023537          	lui	a0,0x23
    2128:	28050513          	addi	a0,a0,640 # 23280 <_data_lma+0x1f578>
    212c:	0405                	addi	s0,s0,1
    212e:	da6fe0ef          	jal	ra,6d4 <DelaySysTick>
    2132:	0442                	slli	s0,s0,0x10
    2134:	8041                	srli	s0,s0,0x10
    2136:	47e1                	li	a5,24
    2138:	fcf41ae3          	bne	s0,a5,210c <erase_all_paint_saves+0xc>
    213c:	00003537          	lui	a0,0x3
    2140:	66450513          	addi	a0,a0,1636 # 3664 <colors+0xf0>
    2144:	d4cfe0ef          	jal	ra,690 <puts>
    2148:	20000413          	li	s0,512
    214c:	000034b7          	lui	s1,0x3
    2150:	4705                	li	a4,1
    2152:	868a                	mv	a3,sp
    2154:	4605                	li	a2,1
    2156:	85a2                	mv	a1,s0
    2158:	05200513          	li	a0,82
    215c:	00010023          	sb	zero,0(sp)
    2160:	a27fe0ef          	jal	ra,b86 <i2c_write_pages>
    2164:	85aa                	mv	a1,a0
    2166:	68448513          	addi	a0,s1,1668 # 3684 <colors+0x110>
    216a:	c68fe0ef          	jal	ra,5d2 <printf>
    216e:	00023537          	lui	a0,0x23
    2172:	28050513          	addi	a0,a0,640 # 23280 <_data_lma+0x1f578>
    2176:	04040413          	addi	s0,s0,64
    217a:	d5afe0ef          	jal	ra,6d4 <DelaySysTick>
    217e:	0442                	slli	s0,s0,0x10
    2180:	8041                	srli	s0,s0,0x10
    2182:	60000793          	li	a5,1536
    2186:	fcf415e3          	bne	s0,a5,2150 <erase_all_paint_saves+0x50>
    218a:	0111                	addi	sp,sp,4
    218c:	fbffd06f          	j	14a <__riscv_restore_0>

00002190 <flushCanvas>:
    2190:	fb1fd2ef          	jal	t0,140 <__riscv_save_0>
    2194:	200004b7          	lui	s1,0x20000
    2198:	4401                	li	s0,0
    219a:	12048493          	addi	s1,s1,288 # 20000120 <_edata>
    219e:	00341793          	slli	a5,s0,0x3
    21a2:	97a6                	add	a5,a5,s1
    21a4:	43cc                	lw	a1,4(a5)
    21a6:	0ff47513          	andi	a0,s0,255
    21aa:	0405                	addi	s0,s0,1
    21ac:	aabfe0ef          	jal	ra,c56 <set_color>
    21b0:	04000793          	li	a5,64
    21b4:	fef415e3          	bne	s0,a5,219e <flushCanvas+0xe>
    21b8:	40011537          	lui	a0,0x40011
    21bc:	0c000693          	li	a3,192
    21c0:	a0818613          	addi	a2,gp,-1528 # 20000328 <led_array>
    21c4:	4589                	li	a1,2
    21c6:	80050513          	addi	a0,a0,-2048 # 40010800 <__global_pointer$+0x2000fee0>
    21ca:	e7ffe0ef          	jal	ra,1048 <WS2812BSimpleSend>
    21ce:	f7dfd06f          	j	14a <__riscv_restore_0>

000021d2 <toCodingSpace>:
    21d2:	f6ffd2ef          	jal	t0,140 <__riscv_save_0>
    21d6:	842a                	mv	s0,a0
    21d8:	85aa                	mv	a1,a0
    21da:	00004537          	lui	a0,0x4
    21de:	bec50513          	addi	a0,a0,-1044 # 3bec <colors+0x678>
    21e2:	bf0fe0ef          	jal	ra,5d2 <printf>
    21e6:	b25fe0ef          	jal	ra,d0a <clear>
    21ea:	00341513          	slli	a0,s0,0x3
    21ee:	8d01                	sub	a0,a0,s0
    21f0:	00351793          	slli	a5,a0,0x3
    21f4:	20000737          	lui	a4,0x20000
    21f8:	ac818513          	addi	a0,gp,-1336 # 200003e8 <opCodeStorage>
    21fc:	953e                	add	a0,a0,a5
    21fe:	12070793          	addi	a5,a4,288 # 20000120 <_edata>
    2202:	1c078793          	addi	a5,a5,448
    2206:	12070393          	addi	t2,a4,288
    220a:	4409                	li	s0,2
    220c:	a0018613          	addi	a2,gp,-1536 # 20000320 <clearground>
    2210:	06400313          	li	t1,100
    2214:	873e                	mv	a4,a5
    2216:	85aa                	mv	a1,a0
    2218:	469d                	li	a3,7
    221a:	50fd                	li	ra,-1
    221c:	fcf5c283          	lbu	t0,-49(a1)
    2220:	06028c63          	beqz	t0,2298 <toCodingSpace+0xc6>
    2224:	02572c23          	sw	t0,56(a4)
    2228:	06d45163          	bge	s0,a3,228a <toCodingSpace+0xb8>
    222c:	02670e23          	sb	t1,60(a4)
    2230:	02070ea3          	sb	zero,61(a4)
    2234:	02070f23          	sb	zero,62(a4)
    2238:	16fd                	addi	a3,a3,-1
    223a:	15fd                	addi	a1,a1,-1
    223c:	1761                	addi	a4,a4,-8
    223e:	fc169fe3          	bne	a3,ra,221c <toCodingSpace+0x4a>
    2242:	fc078793          	addi	a5,a5,-64
    2246:	0521                	addi	a0,a0,8
    2248:	fc7796e3          	bne	a5,t2,2214 <toCodingSpace+0x42>
    224c:	200006b7          	lui	a3,0x20000
    2250:	4711                	li	a4,4
    2252:	460d                	li	a2,3
    2254:	00c68693          	addi	a3,a3,12 # 2000000c <pageground>
    2258:	200005b7          	lui	a1,0x20000
    225c:	fc800513          	li	a0,-56
    2260:	0006d303          	lhu	t1,0(a3)
    2264:	d390                	sw	a2,32(a5)
    2266:	02679223          	sh	t1,36(a5)
    226a:	0026c303          	lbu	t1,2(a3)
    226e:	02678323          	sb	t1,38(a5)
    2272:	0075c303          	lbu	t1,7(a1) # 20000007 <currentPage>
    2276:	00671463          	bne	a4,t1,227e <toCodingSpace+0xac>
    227a:	02a782a3          	sb	a0,37(a5)
    227e:	177d                	addi	a4,a4,-1
    2280:	07a1                	addi	a5,a5,8
    2282:	ff79                	bnez	a4,2260 <toCodingSpace+0x8e>
    2284:	3731                	jal	2190 <flushCanvas>
    2286:	ec5fd06f          	j	14a <__riscv_restore_0>
    228a:	02070e23          	sb	zero,60(a4)
    228e:	02070ea3          	sb	zero,61(a4)
    2292:	02670f23          	sb	t1,62(a4)
    2296:	b74d                	j	2238 <toCodingSpace+0x66>
    2298:	00065283          	lhu	t0,0(a2)
    229c:	df00                	sw	s0,56(a4)
    229e:	02571e23          	sh	t0,60(a4)
    22a2:	00264283          	lbu	t0,2(a2)
    22a6:	02570f23          	sb	t0,62(a4)
    22aa:	b779                	j	2238 <toCodingSpace+0x66>

000022ac <choose_load_page>:
    22ac:	e95fd2ef          	jal	t0,140 <__riscv_save_0>
    22b0:	1131                	addi	sp,sp,-20
    22b2:	842a                	mv	s0,a0
    22b4:	3341                	jal	2034 <led_display_paint_page_status>
    22b6:	47a5                	li	a5,9
    22b8:	08f40763          	beq	s0,a5,2346 <choose_load_page+0x9a>
    22bc:	479d                	li	a5,7
    22be:	08f41863          	bne	s0,a5,234e <choose_load_page+0xa2>
    22c2:	03600493          	li	s1,54
    22c6:	c202                	sw	zero,4(sp)
    22c8:	4785                	li	a5,1
    22ca:	c03e                	sw	a5,0(sp)
    22cc:	c21fe0ef          	jal	ra,eec <matrix_pressed_two>
    22d0:	577d                	li	a4,-1
    22d2:	18e50263          	beq	a0,a4,2456 <choose_load_page+0x1aa>
    22d6:	01051713          	slli	a4,a0,0x10
    22da:	4582                	lw	a1,0(sp)
    22dc:	8341                	srli	a4,a4,0x10
    22de:	c62a                	sw	a0,12(sp)
    22e0:	853a                	mv	a0,a4
    22e2:	c43a                	sw	a4,8(sp)
    22e4:	e71fd0ef          	jal	ra,154 <__mulsi3>
    22e8:	4792                	lw	a5,4(sp)
    22ea:	009786b3          	add	a3,a5,s1
    22ee:	9536                	add	a0,a0,a3
    22f0:	0542                	slli	a0,a0,0x10
    22f2:	8141                	srli	a0,a0,0x10
    22f4:	8f8ff0ef          	jal	ra,13ec <is_page_used>
    22f8:	4722                	lw	a4,8(sp)
    22fa:	47b2                	lw	a5,12(sp)
    22fc:	ed29                	bnez	a0,2356 <choose_load_page+0xaa>
    22fe:	00003537          	lui	a0,0x3
    2302:	85be                	mv	a1,a5
    2304:	4d450513          	addi	a0,a0,1236 # 34d4 <buttons+0x100>
    2308:	acafe0ef          	jal	ra,5d2 <printf>
    230c:	6799                	lui	a5,0x6
    230e:	40078793          	addi	a5,a5,1024 # 6400 <_data_lma+0x26f8>
    2312:	80fc                	sh	a5,16(sp)
    2314:	00010923          	sb	zero,18(sp)
    2318:	4542                	lw	a0,16(sp)
    231a:	a19fe0ef          	jal	ra,d32 <fill_color.constprop.15>
    231e:	40011537          	lui	a0,0x40011
    2322:	0c000693          	li	a3,192
    2326:	a0818613          	addi	a2,gp,-1528 # 20000328 <led_array>
    232a:	4589                	li	a1,2
    232c:	80050513          	addi	a0,a0,-2048 # 40010800 <__global_pointer$+0x2000fee0>
    2330:	d19fe0ef          	jal	ra,1048 <WS2812BSimpleSend>
    2334:	02dc7537          	lui	a0,0x2dc7
    2338:	c0050513          	addi	a0,a0,-1024 # 2dc6c00 <_data_lma+0x2dc2ef8>
    233c:	b98fe0ef          	jal	ra,6d4 <DelaySysTick>
    2340:	8522                	mv	a0,s0
    2342:	39cd                	jal	2034 <led_display_paint_page_status>
    2344:	b761                	j	22cc <choose_load_page+0x20>
    2346:	44a1                	li	s1,8
    2348:	c202                	sw	zero,4(sp)
    234a:	478d                	li	a5,3
    234c:	bfbd                	j	22ca <choose_load_page+0x1e>
    234e:	47e1                	li	a5,24
    2350:	44a1                	li	s1,8
    2352:	c23e                	sw	a5,4(sp)
    2354:	bf9d                	j	22ca <choose_load_page+0x1e>
    2356:	00003537          	lui	a0,0x3
    235a:	85be                	mv	a1,a5
    235c:	4ec50513          	addi	a0,a0,1260 # 34ec <buttons+0x118>
    2360:	c03a                	sw	a4,0(sp)
    2362:	a70fe0ef          	jal	ra,5d2 <printf>
    2366:	47a5                	li	a5,9
    2368:	4702                	lw	a4,0(sp)
    236a:	04f41a63          	bne	s0,a5,23be <choose_load_page+0x112>
    236e:	a0818593          	addi	a1,gp,-1528 # 20000328 <led_array>
    2372:	4605                	li	a2,1
    2374:	853a                	mv	a0,a4
    2376:	20000437          	lui	s0,0x20000
    237a:	c36ff0ef          	jal	ra,17b0 <load_paint>
    237e:	a0818493          	addi	s1,gp,-1528 # 20000328 <led_array>
    2382:	12040413          	addi	s0,s0,288 # 20000120 <_edata>
    2386:	85a6                	mv	a1,s1
    2388:	00440513          	addi	a0,s0,4
    238c:	460d                	li	a2,3
    238e:	888fe0ef          	jal	ra,416 <memcpy>
    2392:	0421                	addi	s0,s0,8
    2394:	a0018793          	addi	a5,gp,-1536 # 20000320 <clearground>
    2398:	048d                	addi	s1,s1,3
    239a:	fe8796e3          	bne	a5,s0,2386 <choose_load_page+0xda>
    239e:	00003537          	lui	a0,0x3
    23a2:	50050513          	addi	a0,a0,1280 # 3500 <buttons+0x12c>
    23a6:	aeafe0ef          	jal	ra,690 <puts>
    23aa:	02dc7537          	lui	a0,0x2dc7
    23ae:	c0050513          	addi	a0,a0,-1024 # 2dc6c00 <_data_lma+0x2dc2ef8>
    23b2:	b22fe0ef          	jal	ra,6d4 <DelaySysTick>
    23b6:	3be9                	jal	2190 <flushCanvas>
    23b8:	0151                	addi	sp,sp,20
    23ba:	d91fd06f          	j	14a <__riscv_restore_0>
    23be:	479d                	li	a5,7
    23c0:	fcf41fe3          	bne	s0,a5,239e <choose_load_page+0xf2>
    23c4:	ba818593          	addi	a1,gp,-1112 # 200004c8 <opCodeToStored>
    23c8:	853a                	mv	a0,a4
    23ca:	bafff0ef          	jal	ra,1f78 <load_opCode>
    23ce:	4401                	li	s0,0
    23d0:	ba818493          	addi	s1,gp,-1112 # 200004c8 <opCodeToStored>
    23d4:	008487b3          	add	a5,s1,s0
    23d8:	239c                	lbu	a5,0(a5)
    23da:	459d                	li	a1,7
    23dc:	8522                	mv	a0,s0
    23de:	c23e                	sw	a5,4(sp)
    23e0:	d8dfd0ef          	jal	ra,16c <__divsi3>
    23e4:	c02a                	sw	a0,0(sp)
    23e6:	459d                	li	a1,7
    23e8:	8522                	mv	a0,s0
    23ea:	ddbfd0ef          	jal	ra,1c4 <__modsi3>
    23ee:	4302                	lw	t1,0(sp)
    23f0:	ac818693          	addi	a3,gp,-1336 # 200003e8 <opCodeStorage>
    23f4:	00331713          	slli	a4,t1,0x3
    23f8:	4792                	lw	a5,4(sp)
    23fa:	40670733          	sub	a4,a4,t1
    23fe:	953a                	add	a0,a0,a4
    2400:	050e                	slli	a0,a0,0x3
    2402:	9536                	add	a0,a0,a3
    2404:	0017f713          	andi	a4,a5,1
    2408:	a118                	sb	a4,0(a0)
    240a:	4017d713          	srai	a4,a5,0x1
    240e:	8b05                	andi	a4,a4,1
    2410:	b118                	sb	a4,1(a0)
    2412:	4027d713          	srai	a4,a5,0x2
    2416:	8b05                	andi	a4,a4,1
    2418:	a138                	sb	a4,2(a0)
    241a:	4037d713          	srai	a4,a5,0x3
    241e:	8b05                	andi	a4,a4,1
    2420:	b138                	sb	a4,3(a0)
    2422:	4047d713          	srai	a4,a5,0x4
    2426:	8b05                	andi	a4,a4,1
    2428:	a158                	sb	a4,4(a0)
    242a:	4057d713          	srai	a4,a5,0x5
    242e:	8b05                	andi	a4,a4,1
    2430:	b158                	sb	a4,5(a0)
    2432:	4067d713          	srai	a4,a5,0x6
    2436:	8b05                	andi	a4,a4,1
    2438:	839d                	srli	a5,a5,0x7
    243a:	a178                	sb	a4,6(a0)
    243c:	b17c                	sb	a5,7(a0)
    243e:	0405                	addi	s0,s0,1
    2440:	4671                	li	a2,28
    2442:	f8c419e3          	bne	s0,a2,23d4 <choose_load_page+0x128>
    2446:	200007b7          	lui	a5,0x20000
    244a:	4705                	li	a4,1
    244c:	4505                	li	a0,1
    244e:	00e783a3          	sb	a4,7(a5) # 20000007 <currentPage>
    2452:	3341                	jal	21d2 <toCodingSpace>
    2454:	b7a9                	j	239e <choose_load_page+0xf2>
    2456:	000017b7          	lui	a5,0x1
    245a:	d6078513          	addi	a0,a5,-672 # d60 <ADC_read_smallboard>
    245e:	4595                	li	a1,5
    2460:	90bfe0ef          	jal	ra,d6a <multiple_ADC_reads>
    2464:	95bfe0ef          	jal	ra,dbe <JOY_check_button>
    2468:	57e5                	li	a5,-7
    246a:	00f51963          	bne	a0,a5,247c <choose_load_page+0x1d0>
    246e:	00003537          	lui	a0,0x3
    2472:	50c50513          	addi	a0,a0,1292 # 350c <buttons+0x138>
    2476:	a1afe0ef          	jal	ra,690 <puts>
    247a:	bf35                	j	23b6 <choose_load_page+0x10a>
    247c:	00928537          	lui	a0,0x928
    2480:	c0050513          	addi	a0,a0,-1024 # 927c00 <_data_lma+0x923ef8>
    2484:	a50fe0ef          	jal	ra,6d4 <DelaySysTick>
    2488:	b591                	j	22cc <choose_load_page+0x20>

0000248a <choose_save_page>:
    248a:	cb7fd2ef          	jal	t0,140 <__riscv_save_0>
    248e:	1141                	addi	sp,sp,-16
    2490:	842a                	mv	s0,a0
    2492:	ba3ff0ef          	jal	ra,2034 <led_display_paint_page_status>
    2496:	47a5                	li	a5,9
    2498:	0cf40263          	beq	s0,a5,255c <choose_save_page+0xd2>
    249c:	479d                	li	a5,7
    249e:	0cf41463          	bne	s0,a5,2566 <choose_save_page+0xdc>
    24a2:	03600793          	li	a5,54
    24a6:	c43e                	sw	a5,8(sp)
    24a8:	c202                	sw	zero,4(sp)
    24aa:	4785                	li	a5,1
    24ac:	c03e                	sw	a5,0(sp)
    24ae:	000014b7          	lui	s1,0x1
    24b2:	a3bfe0ef          	jal	ra,eec <matrix_pressed_two>
    24b6:	577d                	li	a4,-1
    24b8:	0ce50563          	beq	a0,a4,2582 <choose_save_page+0xf8>
    24bc:	01051493          	slli	s1,a0,0x10
    24c0:	4582                	lw	a1,0(sp)
    24c2:	80c1                	srli	s1,s1,0x10
    24c4:	c62a                	sw	a0,12(sp)
    24c6:	8526                	mv	a0,s1
    24c8:	c8dfd0ef          	jal	ra,154 <__mulsi3>
    24cc:	4792                	lw	a5,4(sp)
    24ce:	4722                	lw	a4,8(sp)
    24d0:	973e                	add	a4,a4,a5
    24d2:	953a                	add	a0,a0,a4
    24d4:	0542                	slli	a0,a0,0x10
    24d6:	8141                	srli	a0,a0,0x10
    24d8:	f15fe0ef          	jal	ra,13ec <is_page_used>
    24dc:	47b2                	lw	a5,12(sp)
    24de:	c911                	beqz	a0,24f2 <choose_save_page+0x68>
    24e0:	00003537          	lui	a0,0x3
    24e4:	85be                	mv	a1,a5
    24e6:	51c50513          	addi	a0,a0,1308 # 351c <buttons+0x148>
    24ea:	c03e                	sw	a5,0(sp)
    24ec:	8e6fe0ef          	jal	ra,5d2 <printf>
    24f0:	4782                	lw	a5,0(sp)
    24f2:	00003537          	lui	a0,0x3
    24f6:	85be                	mv	a1,a5
    24f8:	4ec50513          	addi	a0,a0,1260 # 34ec <buttons+0x118>
    24fc:	8d6fe0ef          	jal	ra,5d2 <printf>
    2500:	20000737          	lui	a4,0x20000
    2504:	a0818793          	addi	a5,gp,-1528 # 20000328 <led_array>
    2508:	12070713          	addi	a4,a4,288 # 20000120 <_edata>
    250c:	0c078693          	addi	a3,a5,192
    2510:	2348                	lbu	a0,4(a4)
    2512:	2370                	lbu	a2,6(a4)
    2514:	00574303          	lbu	t1,5(a4)
    2518:	a388                	sb	a0,0(a5)
    251a:	a3b0                	sb	a2,2(a5)
    251c:	006780a3          	sb	t1,1(a5)
    2520:	078d                	addi	a5,a5,3
    2522:	0721                	addi	a4,a4,8
    2524:	fed796e3          	bne	a5,a3,2510 <choose_save_page+0x86>
    2528:	47a5                	li	a5,9
    252a:	04f41363          	bne	s0,a5,2570 <choose_save_page+0xe6>
    252e:	4605                	li	a2,1
    2530:	a0818593          	addi	a1,gp,-1528 # 20000328 <led_array>
    2534:	8526                	mv	a0,s1
    2536:	91aff0ef          	jal	ra,1650 <save_paint>
    253a:	00003537          	lui	a0,0x3
    253e:	53450513          	addi	a0,a0,1332 # 3534 <buttons+0x160>
    2542:	94efe0ef          	jal	ra,690 <puts>
    2546:	02dc7537          	lui	a0,0x2dc7
    254a:	c0050513          	addi	a0,a0,-1024 # 2dc6c00 <_data_lma+0x2dc2ef8>
    254e:	986fe0ef          	jal	ra,6d4 <DelaySysTick>
    2552:	c3fff0ef          	jal	ra,2190 <flushCanvas>
    2556:	0141                	addi	sp,sp,16
    2558:	bf3fd06f          	j	14a <__riscv_restore_0>
    255c:	47a1                	li	a5,8
    255e:	c43e                	sw	a5,8(sp)
    2560:	c202                	sw	zero,4(sp)
    2562:	478d                	li	a5,3
    2564:	b7a1                	j	24ac <choose_save_page+0x22>
    2566:	47a1                	li	a5,8
    2568:	c43e                	sw	a5,8(sp)
    256a:	47e1                	li	a5,24
    256c:	c23e                	sw	a5,4(sp)
    256e:	bf3d                	j	24ac <choose_save_page+0x22>
    2570:	479d                	li	a5,7
    2572:	fcf414e3          	bne	s0,a5,253a <choose_save_page+0xb0>
    2576:	ba818593          	addi	a1,gp,-1112 # 200004c8 <opCodeToStored>
    257a:	8526                	mv	a0,s1
    257c:	98eff0ef          	jal	ra,170a <save_opCode>
    2580:	bf6d                	j	253a <choose_save_page+0xb0>
    2582:	4595                	li	a1,5
    2584:	d6048513          	addi	a0,s1,-672 # d60 <ADC_read_smallboard>
    2588:	fe2fe0ef          	jal	ra,d6a <multiple_ADC_reads>
    258c:	833fe0ef          	jal	ra,dbe <JOY_check_button>
    2590:	57e5                	li	a5,-7
    2592:	00f51963          	bne	a0,a5,25a4 <choose_save_page+0x11a>
    2596:	00003537          	lui	a0,0x3
    259a:	54050513          	addi	a0,a0,1344 # 3540 <buttons+0x16c>
    259e:	8f2fe0ef          	jal	ra,690 <puts>
    25a2:	bf45                	j	2552 <choose_save_page+0xc8>
    25a4:	00928537          	lui	a0,0x928
    25a8:	c0050513          	addi	a0,a0,-1024 # 927c00 <_data_lma+0x923ef8>
    25ac:	928fe0ef          	jal	ra,6d4 <DelaySysTick>
    25b0:	b709                	j	24b2 <choose_save_page+0x28>

000025b2 <rv_code_routine>:
    25b2:	b8ffd2ef          	jal	t0,140 <__riscv_save_0>
    25b6:	00004537          	lui	a0,0x4
    25ba:	1141                	addi	sp,sp,-16
    25bc:	9c450513          	addi	a0,a0,-1596 # 39c4 <colors+0x450>
    25c0:	8d0fe0ef          	jal	ra,690 <puts>
    25c4:	200006b7          	lui	a3,0x20000
    25c8:	12068793          	addi	a5,a3,288 # 20000120 <_edata>
    25cc:	12068693          	addi	a3,a3,288
    25d0:	c036                	sw	a3,0(sp)
    25d2:	20000637          	lui	a2,0x20000
    25d6:	5771                	li	a4,-4
    25d8:	458d                	li	a1,3
    25da:	4309                	li	t1,2
    25dc:	a0018693          	addi	a3,gp,-1536 # 20000320 <clearground>
    25e0:	200002b7          	lui	t0,0x20000
    25e4:	00c60613          	addi	a2,a2,12 # 2000000c <pageground>
    25e8:	08e5ee63          	bltu	a1,a4,2684 <rv_code_routine+0xd2>
    25ec:	0072c383          	lbu	t2,7(t0) # 20000007 <currentPage>
    25f0:	4511                	li	a0,4
    25f2:	8d19                	sub	a0,a0,a4
    25f4:	c38c                	sw	a1,0(a5)
    25f6:	08a39263          	bne	t2,a0,267a <rv_code_routine+0xc8>
    25fa:	fc800513          	li	a0,-56
    25fe:	b3c8                	sb	a0,5(a5)
    2600:	0705                	addi	a4,a4,1
    2602:	03c00513          	li	a0,60
    2606:	07a1                	addi	a5,a5,8
    2608:	fea710e3          	bne	a4,a0,25e8 <rv_code_routine+0x36>
    260c:	20000437          	lui	s0,0x20000
    2610:	4785                	li	a5,1
    2612:	00f403a3          	sb	a5,7(s0) # 20000007 <currentPage>
    2616:	b7bff0ef          	jal	ra,2190 <flushCanvas>
    261a:	00740413          	addi	s0,s0,7
    261e:	00928537          	lui	a0,0x928
    2622:	c0050513          	addi	a0,a0,-1024 # 927c00 <_data_lma+0x923ef8>
    2626:	8aefe0ef          	jal	ra,6d4 <DelaySysTick>
    262a:	8c3fe0ef          	jal	ra,eec <matrix_pressed_two>
    262e:	57fd                	li	a5,-1
    2630:	84aa                	mv	s1,a0
    2632:	2af51c63          	bne	a0,a5,28ea <rv_code_routine+0x338>
    2636:	000014b7          	lui	s1,0x1
    263a:	4595                	li	a1,5
    263c:	d6048513          	addi	a0,s1,-672 # d60 <ADC_read_smallboard>
    2640:	f2afe0ef          	jal	ra,d6a <multiple_ADC_reads>
    2644:	f7afe0ef          	jal	ra,dbe <JOY_check_button>
    2648:	57d9                	li	a5,-10
    264a:	04f51363          	bne	a0,a5,2690 <rv_code_routine+0xde>
    264e:	00004537          	lui	a0,0x4
    2652:	9d050513          	addi	a0,a0,-1584 # 39d0 <colors+0x45c>
    2656:	83afe0ef          	jal	ra,690 <puts>
    265a:	451d                	li	a0,7
    265c:	c51ff0ef          	jal	ra,22ac <choose_load_page>
    2660:	016e3537          	lui	a0,0x16e3
    2664:	60050513          	addi	a0,a0,1536 # 16e3600 <_data_lma+0x16df8f8>
    2668:	86cfe0ef          	jal	ra,6d4 <DelaySysTick>
    266c:	00004537          	lui	a0,0x4
    2670:	9ec50513          	addi	a0,a0,-1556 # 39ec <colors+0x478>
    2674:	81cfe0ef          	jal	ra,690 <puts>
    2678:	b75d                	j	261e <rv_code_routine+0x6c>
    267a:	220a                	lhu	a0,0(a2)
    267c:	a3ca                	sh	a0,4(a5)
    267e:	2228                	lbu	a0,2(a2)
    2680:	a3e8                	sb	a0,6(a5)
    2682:	bfbd                	j	2600 <rv_code_routine+0x4e>
    2684:	228a                	lhu	a0,0(a3)
    2686:	0067a023          	sw	t1,0(a5)
    268a:	a3ca                	sh	a0,4(a5)
    268c:	22a8                	lbu	a0,2(a3)
    268e:	bfcd                	j	2680 <rv_code_routine+0xce>
    2690:	4595                	li	a1,5
    2692:	d6048513          	addi	a0,s1,-672
    2696:	ed4fe0ef          	jal	ra,d6a <multiple_ADC_reads>
    269a:	f24fe0ef          	jal	ra,dbe <JOY_check_button>
    269e:	57f9                	li	a5,-2
    26a0:	f6f50fe3          	beq	a0,a5,261e <rv_code_routine+0x6c>
    26a4:	4595                	li	a1,5
    26a6:	d6048513          	addi	a0,s1,-672
    26aa:	ec0fe0ef          	jal	ra,d6a <multiple_ADC_reads>
    26ae:	f10fe0ef          	jal	ra,dbe <JOY_check_button>
    26b2:	57d5                	li	a5,-11
    26b4:	0cf51863          	bne	a0,a5,2784 <rv_code_routine+0x1d2>
    26b8:	ac818793          	addi	a5,gp,-1336 # 200003e8 <opCodeStorage>
    26bc:	ba818493          	addi	s1,gp,-1112 # 200004c8 <opCodeToStored>
    26c0:	4681                	li	a3,0
    26c2:	c23e                	sw	a5,4(sp)
    26c4:	459d                	li	a1,7
    26c6:	8536                	mv	a0,a3
    26c8:	00048023          	sb	zero,0(s1)
    26cc:	c436                	sw	a3,8(sp)
    26ce:	a9ffd0ef          	jal	ra,16c <__divsi3>
    26d2:	46a2                	lw	a3,8(sp)
    26d4:	00351793          	slli	a5,a0,0x3
    26d8:	8f89                	sub	a5,a5,a0
    26da:	459d                	li	a1,7
    26dc:	8536                	mv	a0,a3
    26de:	c63e                	sw	a5,12(sp)
    26e0:	ae5fd0ef          	jal	ra,1c4 <__modsi3>
    26e4:	47b2                	lw	a5,12(sp)
    26e6:	46a2                	lw	a3,8(sp)
    26e8:	471d                	li	a4,7
    26ea:	953e                	add	a0,a0,a5
    26ec:	050e                	slli	a0,a0,0x3
    26ee:	459d                	li	a1,7
    26f0:	430d                	li	t1,3
    26f2:	4289                	li	t0,2
    26f4:	4611                	li	a2,4
    26f6:	4392                	lw	t2,4(sp)
    26f8:	00a707b3          	add	a5,a4,a0
    26fc:	979e                	add	a5,a5,t2
    26fe:	239c                	lbu	a5,0(a5)
    2700:	c799                	beqz	a5,270e <rv_code_routine+0x15c>
    2702:	209c                	lbu	a5,0(s1)
    2704:	02b71c63          	bne	a4,a1,273c <rv_code_routine+0x18a>
    2708:	f807e793          	ori	a5,a5,-128
    270c:	a09c                	sb	a5,0(s1)
    270e:	177d                	addi	a4,a4,-1
    2710:	57fd                	li	a5,-1
    2712:	fef712e3          	bne	a4,a5,26f6 <rv_code_routine+0x144>
    2716:	0685                	addi	a3,a3,1
    2718:	47f1                	li	a5,28
    271a:	0485                	addi	s1,s1,1
    271c:	faf694e3          	bne	a3,a5,26c4 <rv_code_routine+0x112>
    2720:	00004537          	lui	a0,0x4
    2724:	a0850513          	addi	a0,a0,-1528 # 3a08 <colors+0x494>
    2728:	f69fd0ef          	jal	ra,690 <puts>
    272c:	451d                	li	a0,7
    272e:	d5dff0ef          	jal	ra,248a <choose_save_page>
    2732:	00004537          	lui	a0,0x4
    2736:	a2850513          	addi	a0,a0,-1496 # 3a28 <colors+0x4b4>
    273a:	bf2d                	j	2674 <rv_code_routine+0xc2>
    273c:	4399                	li	t2,6
    273e:	00771563          	bne	a4,t2,2748 <rv_code_routine+0x196>
    2742:	0407e793          	ori	a5,a5,64
    2746:	b7d9                	j	270c <rv_code_routine+0x15a>
    2748:	4395                	li	t2,5
    274a:	00771563          	bne	a4,t2,2754 <rv_code_routine+0x1a2>
    274e:	0207e793          	ori	a5,a5,32
    2752:	bf6d                	j	270c <rv_code_routine+0x15a>
    2754:	00c71563          	bne	a4,a2,275e <rv_code_routine+0x1ac>
    2758:	0107e793          	ori	a5,a5,16
    275c:	bf45                	j	270c <rv_code_routine+0x15a>
    275e:	00671563          	bne	a4,t1,2768 <rv_code_routine+0x1b6>
    2762:	0087e793          	ori	a5,a5,8
    2766:	b75d                	j	270c <rv_code_routine+0x15a>
    2768:	00571563          	bne	a4,t0,2772 <rv_code_routine+0x1c0>
    276c:	0047e793          	ori	a5,a5,4
    2770:	bf71                	j	270c <rv_code_routine+0x15a>
    2772:	4385                	li	t2,1
    2774:	00771563          	bne	a4,t2,277e <rv_code_routine+0x1cc>
    2778:	0027e793          	ori	a5,a5,2
    277c:	bf41                	j	270c <rv_code_routine+0x15a>
    277e:	0017e793          	ori	a5,a5,1
    2782:	b769                	j	270c <rv_code_routine+0x15a>
    2784:	4595                	li	a1,5
    2786:	d6048513          	addi	a0,s1,-672
    278a:	de0fe0ef          	jal	ra,d6a <multiple_ADC_reads>
    278e:	e30fe0ef          	jal	ra,dbe <JOY_check_button>
    2792:	57f1                	li	a5,-4
    2794:	00f51c63          	bne	a0,a5,27ac <rv_code_routine+0x1fa>
    2798:	00004537          	lui	a0,0x4
    279c:	a4450513          	addi	a0,a0,-1468 # 3a44 <colors+0x4d0>
    27a0:	ef1fd0ef          	jal	ra,690 <puts>
    27a4:	2008                	lbu	a0,0(s0)
    27a6:	a2dff0ef          	jal	ra,21d2 <toCodingSpace>
    27aa:	bd95                	j	261e <rv_code_routine+0x6c>
    27ac:	4595                	li	a1,5
    27ae:	d6048513          	addi	a0,s1,-672
    27b2:	db8fe0ef          	jal	ra,d6a <multiple_ADC_reads>
    27b6:	e08fe0ef          	jal	ra,dbe <JOY_check_button>
    27ba:	57dd                	li	a5,-9
    27bc:	00f51c63          	bne	a0,a5,27d4 <rv_code_routine+0x222>
    27c0:	00004537          	lui	a0,0x4
    27c4:	a5850513          	addi	a0,a0,-1448 # 3a58 <colors+0x4e4>
    27c8:	ec9fd0ef          	jal	ra,690 <puts>
    27cc:	4505                	li	a0,1
    27ce:	812ff0ef          	jal	ra,17e0 <rvCodeRun>
    27d2:	bfc9                	j	27a4 <rv_code_routine+0x1f2>
    27d4:	4595                	li	a1,5
    27d6:	d6048513          	addi	a0,s1,-672
    27da:	d90fe0ef          	jal	ra,d6a <multiple_ADC_reads>
    27de:	de0fe0ef          	jal	ra,dbe <JOY_check_button>
    27e2:	57ed                	li	a5,-5
    27e4:	02f51063          	bne	a0,a5,2804 <rv_code_routine+0x252>
    27e8:	00004537          	lui	a0,0x4
    27ec:	a6450513          	addi	a0,a0,-1436 # 3a64 <colors+0x4f0>
    27f0:	ea1fd0ef          	jal	ra,690 <puts>
    27f4:	00004537          	lui	a0,0x4
    27f8:	a7c50513          	addi	a0,a0,-1412 # 3a7c <colors+0x508>
    27fc:	e95fd0ef          	jal	ra,690 <puts>
    2800:	4501                	li	a0,0
    2802:	b7f1                	j	27ce <rv_code_routine+0x21c>
    2804:	4595                	li	a1,5
    2806:	d6048513          	addi	a0,s1,-672
    280a:	d60fe0ef          	jal	ra,d6a <multiple_ADC_reads>
    280e:	db0fe0ef          	jal	ra,dbe <JOY_check_button>
    2812:	57e9                	li	a5,-6
    2814:	02f51663          	bne	a0,a5,2840 <rv_code_routine+0x28e>
    2818:	200007b7          	lui	a5,0x20000
    281c:	471d                	li	a4,7
    281e:	00004537          	lui	a0,0x4
    2822:	00e7a023          	sw	a4,0(a5) # 20000000 <_data_vma>
    2826:	a8850513          	addi	a0,a0,-1400 # 3a88 <colors+0x514>
    282a:	e67fd0ef          	jal	ra,690 <puts>
    282e:	016e3537          	lui	a0,0x16e3
    2832:	60050513          	addi	a0,a0,1536 # 16e3600 <_data_lma+0x16df8f8>
    2836:	e9ffd0ef          	jal	ra,6d4 <DelaySysTick>
    283a:	0141                	addi	sp,sp,16
    283c:	90ffd06f          	j	14a <__riscv_restore_0>
    2840:	4595                	li	a1,5
    2842:	d6048513          	addi	a0,s1,-672
    2846:	d24fe0ef          	jal	ra,d6a <multiple_ADC_reads>
    284a:	d74fe0ef          	jal	ra,dbe <JOY_check_button>
    284e:	57f5                	li	a5,-3
    2850:	06f51963          	bne	a0,a5,28c2 <rv_code_routine+0x310>
    2854:	2018                	lbu	a4,0(s0)
    2856:	469d                	li	a3,7
    2858:	177d                	addi	a4,a4,-1
    285a:	00371793          	slli	a5,a4,0x3
    285e:	8f99                	sub	a5,a5,a4
    2860:	00379713          	slli	a4,a5,0x3
    2864:	ac818793          	addi	a5,gp,-1336 # 200003e8 <opCodeStorage>
    2868:	97ba                	add	a5,a5,a4
    286a:	4701                	li	a4,0
    286c:	000783a3          	sb	zero,7(a5)
    2870:	00078323          	sb	zero,6(a5)
    2874:	000782a3          	sb	zero,5(a5)
    2878:	00078223          	sb	zero,4(a5)
    287c:	000781a3          	sb	zero,3(a5)
    2880:	00078123          	sb	zero,2(a5)
    2884:	000780a3          	sb	zero,1(a5)
    2888:	00078023          	sb	zero,0(a5)
    288c:	0705                	addi	a4,a4,1
    288e:	07a1                	addi	a5,a5,8
    2890:	fcd71ee3          	bne	a4,a3,286c <rv_code_routine+0x2ba>
    2894:	200007b7          	lui	a5,0x20000
    2898:	12078713          	addi	a4,a5,288 # 20000120 <_edata>
    289c:	1c070693          	addi	a3,a4,448
    28a0:	12078793          	addi	a5,a5,288
    28a4:	4589                	li	a1,2
    28a6:	a0018713          	addi	a4,gp,-1536 # 20000320 <clearground>
    28aa:	2312                	lhu	a2,0(a4)
    28ac:	c3ac                	sw	a1,64(a5)
    28ae:	07a1                	addi	a5,a5,8
    28b0:	bfd2                	sh	a2,60(a5)
    28b2:	2330                	lbu	a2,2(a4)
    28b4:	02c78f23          	sb	a2,62(a5)
    28b8:	fed799e3          	bne	a5,a3,28aa <rv_code_routine+0x2f8>
    28bc:	8d5ff0ef          	jal	ra,2190 <flushCanvas>
    28c0:	bbb9                	j	261e <rv_code_routine+0x6c>
    28c2:	4595                	li	a1,5
    28c4:	d6048513          	addi	a0,s1,-672
    28c8:	ca2fe0ef          	jal	ra,d6a <multiple_ADC_reads>
    28cc:	cf2fe0ef          	jal	ra,dbe <JOY_check_button>
    28d0:	57e5                	li	a5,-7
    28d2:	d4f516e3          	bne	a0,a5,261e <rv_code_routine+0x6c>
    28d6:	200007b7          	lui	a5,0x20000
    28da:	4725                	li	a4,9
    28dc:	00004537          	lui	a0,0x4
    28e0:	00e7a023          	sw	a4,0(a5) # 20000000 <_data_vma>
    28e4:	a9050513          	addi	a0,a0,-1392 # 3a90 <colors+0x51c>
    28e8:	b789                	j	282a <rv_code_routine+0x278>
    28ea:	000047b7          	lui	a5,0x4
    28ee:	85aa                	mv	a1,a0
    28f0:	ab478513          	addi	a0,a5,-1356 # 3ab4 <colors+0x540>
    28f4:	cdffd0ef          	jal	ra,5d2 <printf>
    28f8:	479d                	li	a5,7
    28fa:	0a97d463          	bge	a5,s1,29a2 <rv_code_routine+0x3f0>
    28fe:	201c                	lbu	a5,0(s0)
    2900:	469d                	li	a3,7
    2902:	4389                	li	t2,2
    2904:	fff78293          	addi	t0,a5,-1
    2908:	4034d793          	srai	a5,s1,0x3
    290c:	40f687b3          	sub	a5,a3,a5
    2910:	0ff7f313          	andi	t1,a5,255
    2914:	4782                	lw	a5,0(sp)
    2916:	00349693          	slli	a3,s1,0x3
    291a:	0074f613          	andi	a2,s1,7
    291e:	00d78533          	add	a0,a5,a3
    2922:	00052083          	lw	ra,0(a0)
    2926:	ac818593          	addi	a1,gp,-1336 # 200003e8 <opCodeStorage>
    292a:	00329793          	slli	a5,t0,0x3
    292e:	04709663          	bne	ra,t2,297a <rv_code_routine+0x3c8>
    2932:	00052023          	sw	zero,0(a0)
    2936:	02c0cc63          	blt	ra,a2,296e <rv_code_routine+0x3bc>
    293a:	06400713          	li	a4,100
    293e:	00051223          	sh	zero,4(a0)
    2942:	a178                	sb	a4,6(a0)
    2944:	405787b3          	sub	a5,a5,t0
    2948:	979a                	add	a5,a5,t1
    294a:	078e                	slli	a5,a5,0x3
    294c:	97ae                	add	a5,a5,a1
    294e:	97b2                	add	a5,a5,a2
    2950:	4705                	li	a4,1
    2952:	a398                	sb	a4,0(a5)
    2954:	4782                	lw	a5,0(sp)
    2956:	00004537          	lui	a0,0x4
    295a:	85a6                	mv	a1,s1
    295c:	97b6                	add	a5,a5,a3
    295e:	23f8                	lbu	a4,6(a5)
    2960:	23d4                	lbu	a3,4(a5)
    2962:	33d0                	lbu	a2,5(a5)
    2964:	ac450513          	addi	a0,a0,-1340 # 3ac4 <colors+0x550>
    2968:	c6bfd0ef          	jal	ra,5d2 <printf>
    296c:	bf81                	j	28bc <rv_code_routine+0x30a>
    296e:	06400713          	li	a4,100
    2972:	a15a                	sh	a4,4(a0)
    2974:	00050323          	sb	zero,6(a0)
    2978:	b7f1                	j	2944 <rv_code_routine+0x392>
    297a:	a0018713          	addi	a4,gp,-1536 # 20000320 <clearground>
    297e:	00752023          	sw	t2,0(a0)
    2982:	00075383          	lhu	t2,0(a4)
    2986:	2338                	lbu	a4,2(a4)
    2988:	00751223          	sh	t2,4(a0)
    298c:	a178                	sb	a4,6(a0)
    298e:	40578733          	sub	a4,a5,t0
    2992:	971a                	add	a4,a4,t1
    2994:	070e                	slli	a4,a4,0x3
    2996:	00e587b3          	add	a5,a1,a4
    299a:	97b2                	add	a5,a5,a2
    299c:	00078023          	sb	zero,0(a5)
    29a0:	bf55                	j	2954 <rv_code_routine+0x3a2>
    29a2:	0ff4f593          	andi	a1,s1,255
    29a6:	ffc58793          	addi	a5,a1,-4
    29aa:	0ff7f793          	andi	a5,a5,255
    29ae:	470d                	li	a4,3
    29b0:	c6f767e3          	bltu	a4,a5,261e <rv_code_routine+0x6c>
    29b4:	47a1                	li	a5,8
    29b6:	40b785b3          	sub	a1,a5,a1
    29ba:	00004537          	lui	a0,0x4
    29be:	0ff5f593          	andi	a1,a1,255
    29c2:	ae850513          	addi	a0,a0,-1304 # 3ae8 <colors+0x574>
    29c6:	a00c                	sb	a1,0(s0)
    29c8:	c0bfd0ef          	jal	ra,5d2 <printf>
    29cc:	2008                	lbu	a0,0(s0)
    29ce:	805ff0ef          	jal	ra,21d2 <toCodingSpace>
    29d2:	b5ed                	j	28bc <rv_code_routine+0x30a>

000029d4 <displayColorPalette>:
    29d4:	f6cfd2ef          	jal	t0,140 <__riscv_save_0>
    29d8:	648d                	lui	s1,0x3
    29da:	4401                	li	s0,0
    29dc:	57448493          	addi	s1,s1,1396 # 3574 <colors>
    29e0:	00141793          	slli	a5,s0,0x1
    29e4:	97a2                	add	a5,a5,s0
    29e6:	97a6                	add	a5,a5,s1
    29e8:	3398                	lbu	a4,1(a5)
    29ea:	238c                	lbu	a1,0(a5)
    29ec:	0ff47513          	andi	a0,s0,255
    29f0:	0722                	slli	a4,a4,0x8
    29f2:	8f4d                	or	a4,a4,a1
    29f4:	23ac                	lbu	a1,2(a5)
    29f6:	0405                	addi	s0,s0,1
    29f8:	05c2                	slli	a1,a1,0x10
    29fa:	8dd9                	or	a1,a1,a4
    29fc:	a5afe0ef          	jal	ra,c56 <set_color>
    2a00:	04000793          	li	a5,64
    2a04:	fcf41ee3          	bne	s0,a5,29e0 <displayColorPalette+0xc>
    2a08:	40011537          	lui	a0,0x40011
    2a0c:	0c000693          	li	a3,192
    2a10:	a0818613          	addi	a2,gp,-1528 # 20000328 <led_array>
    2a14:	4589                	li	a1,2
    2a16:	80050513          	addi	a0,a0,-2048 # 40010800 <__global_pointer$+0x2000fee0>
    2a1a:	e2efe0ef          	jal	ra,1048 <WS2812BSimpleSend>
    2a1e:	00003537          	lui	a0,0x3
    2a22:	63450513          	addi	a0,a0,1588 # 3634 <colors+0xc0>
    2a26:	c6bfd0ef          	jal	ra,690 <puts>
    2a2a:	f20fd06f          	j	14a <__riscv_restore_0>

00002a2e <colorPaletteSelection>:
    2a2e:	f12fd2ef          	jal	t0,140 <__riscv_save_0>
    2a32:	842a                	mv	s0,a0
    2a34:	3745                	jal	29d4 <displayColorPalette>
    2a36:	cb6fe0ef          	jal	ra,eec <matrix_pressed_two>
    2a3a:	57fd                	li	a5,-1
    2a3c:	02f50a63          	beq	a0,a5,2a70 <colorPaletteSelection+0x42>
    2a40:	00151593          	slli	a1,a0,0x1
    2a44:	952e                	add	a0,a0,a1
    2a46:	658d                	lui	a1,0x3
    2a48:	57458593          	addi	a1,a1,1396 # 3574 <colors>
    2a4c:	95aa                	add	a1,a1,a0
    2a4e:	460d                	li	a2,3
    2a50:	8522                	mv	a0,s0
    2a52:	9c5fd0ef          	jal	ra,416 <memcpy>
    2a56:	2034                	lbu	a3,2(s0)
    2a58:	2010                	lbu	a2,0(s0)
    2a5a:	300c                	lbu	a1,1(s0)
    2a5c:	00003537          	lui	a0,0x3
    2a60:	54c50513          	addi	a0,a0,1356 # 354c <buttons+0x178>
    2a64:	b6ffd0ef          	jal	ra,5d2 <printf>
    2a68:	f28ff0ef          	jal	ra,2190 <flushCanvas>
    2a6c:	edefd06f          	j	14a <__riscv_restore_0>
    2a70:	00928537          	lui	a0,0x928
    2a74:	c0050513          	addi	a0,a0,-1024 # 927c00 <_data_lma+0x923ef8>
    2a78:	c5dfd0ef          	jal	ra,6d4 <DelaySysTick>
    2a7c:	bf6d                	j	2a36 <colorPaletteSelection+0x8>

00002a7e <painting_routine>:
    2a7e:	ec2fd2ef          	jal	t0,140 <__riscv_save_0>
    2a82:	20000737          	lui	a4,0x20000
    2a86:	1161                	addi	sp,sp,-8
    2a88:	12070793          	addi	a5,a4,288 # 20000120 <_edata>
    2a8c:	12070713          	addi	a4,a4,288
    2a90:	c03a                	sw	a4,0(sp)
    2a92:	4689                	li	a3,2
    2a94:	a0018413          	addi	s0,gp,-1536 # 20000320 <clearground>
    2a98:	201a                	lhu	a4,0(s0)
    2a9a:	c394                	sw	a3,0(a5)
    2a9c:	07a1                	addi	a5,a5,8
    2a9e:	fee79e23          	sh	a4,-4(a5)
    2aa2:	2038                	lbu	a4,2(s0)
    2aa4:	fee78f23          	sb	a4,-2(a5)
    2aa8:	a0018713          	addi	a4,gp,-1536 # 20000320 <clearground>
    2aac:	fee796e3          	bne	a5,a4,2a98 <painting_routine+0x1a>
    2ab0:	ee0ff0ef          	jal	ra,2190 <flushCanvas>
    2ab4:	00928537          	lui	a0,0x928
    2ab8:	c0050513          	addi	a0,a0,-1024 # 927c00 <_data_lma+0x923ef8>
    2abc:	c19fd0ef          	jal	ra,6d4 <DelaySysTick>
    2ac0:	c2cfe0ef          	jal	ra,eec <matrix_pressed_two>
    2ac4:	57fd                	li	a5,-1
    2ac6:	16f51063          	bne	a0,a5,2c26 <painting_routine+0x1a8>
    2aca:	000014b7          	lui	s1,0x1
    2ace:	4595                	li	a1,5
    2ad0:	d6048513          	addi	a0,s1,-672 # d60 <ADC_read_smallboard>
    2ad4:	a96fe0ef          	jal	ra,d6a <multiple_ADC_reads>
    2ad8:	ae6fe0ef          	jal	ra,dbe <JOY_check_button>
    2adc:	57d9                	li	a5,-10
    2ade:	02f51863          	bne	a0,a5,2b0e <painting_routine+0x90>
    2ae2:	00003537          	lui	a0,0x3
    2ae6:	7d050513          	addi	a0,a0,2000 # 37d0 <colors+0x25c>
    2aea:	ba7fd0ef          	jal	ra,690 <puts>
    2aee:	4525                	li	a0,9
    2af0:	fbcff0ef          	jal	ra,22ac <choose_load_page>
    2af4:	02dc7537          	lui	a0,0x2dc7
    2af8:	c0050513          	addi	a0,a0,-1024 # 2dc6c00 <_data_lma+0x2dc2ef8>
    2afc:	bd9fd0ef          	jal	ra,6d4 <DelaySysTick>
    2b00:	00003537          	lui	a0,0x3
    2b04:	7ec50513          	addi	a0,a0,2028 # 37ec <colors+0x278>
    2b08:	b89fd0ef          	jal	ra,690 <puts>
    2b0c:	b765                	j	2ab4 <painting_routine+0x36>
    2b0e:	4595                	li	a1,5
    2b10:	d6048513          	addi	a0,s1,-672
    2b14:	a56fe0ef          	jal	ra,d6a <multiple_ADC_reads>
    2b18:	aa6fe0ef          	jal	ra,dbe <JOY_check_button>
    2b1c:	57d5                	li	a5,-11
    2b1e:	02f51663          	bne	a0,a5,2b4a <painting_routine+0xcc>
    2b22:	00004537          	lui	a0,0x4
    2b26:	80850513          	addi	a0,a0,-2040 # 3808 <colors+0x294>
    2b2a:	b67fd0ef          	jal	ra,690 <puts>
    2b2e:	4525                	li	a0,9
    2b30:	95bff0ef          	jal	ra,248a <choose_save_page>
    2b34:	02dc7537          	lui	a0,0x2dc7
    2b38:	c0050513          	addi	a0,a0,-1024 # 2dc6c00 <_data_lma+0x2dc2ef8>
    2b3c:	b99fd0ef          	jal	ra,6d4 <DelaySysTick>
    2b40:	00004537          	lui	a0,0x4
    2b44:	82850513          	addi	a0,a0,-2008 # 3828 <colors+0x2b4>
    2b48:	b7c1                	j	2b08 <painting_routine+0x8a>
    2b4a:	4595                	li	a1,5
    2b4c:	d6048513          	addi	a0,s1,-672
    2b50:	a1afe0ef          	jal	ra,d6a <multiple_ADC_reads>
    2b54:	a6afe0ef          	jal	ra,dbe <JOY_check_button>
    2b58:	57f1                	li	a5,-4
    2b5a:	00f51963          	bne	a0,a5,2b6c <painting_routine+0xee>
    2b5e:	20000537          	lui	a0,0x20000
    2b62:	00850513          	addi	a0,a0,8 # 20000008 <foreground>
    2b66:	ec9ff0ef          	jal	ra,2a2e <colorPaletteSelection>
    2b6a:	b7a9                	j	2ab4 <painting_routine+0x36>
    2b6c:	4595                	li	a1,5
    2b6e:	d6048513          	addi	a0,s1,-672
    2b72:	9f8fe0ef          	jal	ra,d6a <multiple_ADC_reads>
    2b76:	a48fe0ef          	jal	ra,dbe <JOY_check_button>
    2b7a:	57ed                	li	a5,-5
    2b7c:	00f51763          	bne	a0,a5,2b8a <painting_routine+0x10c>
    2b80:	20000537          	lui	a0,0x20000
    2b84:	00450513          	addi	a0,a0,4 # 20000004 <background>
    2b88:	bff9                	j	2b66 <painting_routine+0xe8>
    2b8a:	4595                	li	a1,5
    2b8c:	d6048513          	addi	a0,s1,-672
    2b90:	9dafe0ef          	jal	ra,d6a <multiple_ADC_reads>
    2b94:	a2afe0ef          	jal	ra,dbe <JOY_check_button>
    2b98:	57e9                	li	a5,-6
    2b9a:	02f51663          	bne	a0,a5,2bc6 <painting_routine+0x148>
    2b9e:	200007b7          	lui	a5,0x20000
    2ba2:	471d                	li	a4,7
    2ba4:	00004537          	lui	a0,0x4
    2ba8:	00e7a023          	sw	a4,0(a5) # 20000000 <_data_vma>
    2bac:	a9050513          	addi	a0,a0,-1392 # 3a90 <colors+0x51c>
    2bb0:	ae1fd0ef          	jal	ra,690 <puts>
    2bb4:	016e3537          	lui	a0,0x16e3
    2bb8:	60050513          	addi	a0,a0,1536 # 16e3600 <_data_lma+0x16df8f8>
    2bbc:	b19fd0ef          	jal	ra,6d4 <DelaySysTick>
    2bc0:	0121                	addi	sp,sp,8
    2bc2:	d88fd06f          	j	14a <__riscv_restore_0>
    2bc6:	4595                	li	a1,5
    2bc8:	d6048513          	addi	a0,s1,-672
    2bcc:	99efe0ef          	jal	ra,d6a <multiple_ADC_reads>
    2bd0:	9eefe0ef          	jal	ra,dbe <JOY_check_button>
    2bd4:	57f5                	li	a5,-3
    2bd6:	02f51463          	bne	a0,a5,2bfe <painting_routine+0x180>
    2bda:	200007b7          	lui	a5,0x20000
    2bde:	12078793          	addi	a5,a5,288 # 20000120 <_edata>
    2be2:	4689                	li	a3,2
    2be4:	201a                	lhu	a4,0(s0)
    2be6:	c394                	sw	a3,0(a5)
    2be8:	07a1                	addi	a5,a5,8
    2bea:	fee79e23          	sh	a4,-4(a5)
    2bee:	2038                	lbu	a4,2(s0)
    2bf0:	fee78f23          	sb	a4,-2(a5)
    2bf4:	a0018713          	addi	a4,gp,-1536 # 20000320 <clearground>
    2bf8:	fee796e3          	bne	a5,a4,2be4 <painting_routine+0x166>
    2bfc:	bd55                	j	2ab0 <painting_routine+0x32>
    2bfe:	4595                	li	a1,5
    2c00:	d6048513          	addi	a0,s1,-672
    2c04:	966fe0ef          	jal	ra,d6a <multiple_ADC_reads>
    2c08:	9b6fe0ef          	jal	ra,dbe <JOY_check_button>
    2c0c:	57e5                	li	a5,-7
    2c0e:	eaf513e3          	bne	a0,a5,2ab4 <painting_routine+0x36>
    2c12:	200007b7          	lui	a5,0x20000
    2c16:	4725                	li	a4,9
    2c18:	00004537          	lui	a0,0x4
    2c1c:	00e7a023          	sw	a4,0(a5) # 20000000 <_data_vma>
    2c20:	a8850513          	addi	a0,a0,-1400 # 3a88 <colors+0x514>
    2c24:	b771                	j	2bb0 <painting_routine+0x132>
    2c26:	000047b7          	lui	a5,0x4
    2c2a:	85aa                	mv	a1,a0
    2c2c:	c22a                	sw	a0,4(sp)
    2c2e:	ab478513          	addi	a0,a5,-1356 # 3ab4 <colors+0x540>
    2c32:	9a1fd0ef          	jal	ra,5d2 <printf>
    2c36:	4712                	lw	a4,4(sp)
    2c38:	4782                	lw	a5,0(sp)
    2c3a:	4689                	li	a3,2
    2c3c:	00371493          	slli	s1,a4,0x3
    2c40:	97a6                	add	a5,a5,s1
    2c42:	4390                	lw	a2,0(a5)
    2c44:	04d61a63          	bne	a2,a3,2c98 <painting_routine+0x21a>
    2c48:	200006b7          	lui	a3,0x20000
    2c4c:	0007a023          	sw	zero,0(a5)
    2c50:	00868693          	addi	a3,a3,8 # 20000008 <foreground>
    2c54:	2292                	lhu	a2,0(a3)
    2c56:	a3d2                	sh	a2,4(a5)
    2c58:	22b4                	lbu	a3,2(a3)
    2c5a:	a3f4                	sb	a3,6(a5)
    2c5c:	4782                	lw	a5,0(sp)
    2c5e:	97a6                	add	a5,a5,s1
    2c60:	439c                	lw	a5,0(a5)
    2c62:	cba1                	beqz	a5,2cb2 <painting_routine+0x234>
    2c64:	4685                	li	a3,1
    2c66:	04d78b63          	beq	a5,a3,2cbc <painting_routine+0x23e>
    2c6a:	00003637          	lui	a2,0x3
    2c6e:	7c460613          	addi	a2,a2,1988 # 37c4 <colors+0x250>
    2c72:	00004537          	lui	a0,0x4
    2c76:	85ba                	mv	a1,a4
    2c78:	84450513          	addi	a0,a0,-1980 # 3844 <colors+0x2d0>
    2c7c:	957fd0ef          	jal	ra,5d2 <printf>
    2c80:	4782                	lw	a5,0(sp)
    2c82:	00004537          	lui	a0,0x4
    2c86:	86050513          	addi	a0,a0,-1952 # 3860 <colors+0x2ec>
    2c8a:	94be                	add	s1,s1,a5
    2c8c:	20f4                	lbu	a3,6(s1)
    2c8e:	20d0                	lbu	a2,4(s1)
    2c90:	30cc                	lbu	a1,5(s1)
    2c92:	941fd0ef          	jal	ra,5d2 <printf>
    2c96:	bd29                	j	2ab0 <painting_routine+0x32>
    2c98:	ea01                	bnez	a2,2ca8 <painting_routine+0x22a>
    2c9a:	4685                	li	a3,1
    2c9c:	c394                	sw	a3,0(a5)
    2c9e:	200006b7          	lui	a3,0x20000
    2ca2:	00468693          	addi	a3,a3,4 # 20000004 <background>
    2ca6:	b77d                	j	2c54 <painting_routine+0x1d6>
    2ca8:	c394                	sw	a3,0(a5)
    2caa:	2016                	lhu	a3,0(s0)
    2cac:	a3d6                	sh	a3,4(a5)
    2cae:	2034                	lbu	a3,2(s0)
    2cb0:	b76d                	j	2c5a <painting_routine+0x1dc>
    2cb2:	00003637          	lui	a2,0x3
    2cb6:	7ac60613          	addi	a2,a2,1964 # 37ac <colors+0x238>
    2cba:	bf65                	j	2c72 <painting_routine+0x1f4>
    2cbc:	00003637          	lui	a2,0x3
    2cc0:	7b860613          	addi	a2,a2,1976 # 37b8 <colors+0x244>
    2cc4:	b77d                	j	2c72 <painting_routine+0x1f4>

00002cc6 <red_screen>:
    2cc6:	c7afd2ef          	jal	t0,140 <__riscv_save_0>
    2cca:	6799                	lui	a5,0x6
    2ccc:	1171                	addi	sp,sp,-4
    2cce:	40078793          	addi	a5,a5,1024 # 6400 <_data_lma+0x26f8>
    2cd2:	807c                	sh	a5,0(sp)
    2cd4:	00010123          	sb	zero,2(sp)
    2cd8:	4502                	lw	a0,0(sp)
    2cda:	858fe0ef          	jal	ra,d32 <fill_color.constprop.15>
    2cde:	40011537          	lui	a0,0x40011
    2ce2:	0c000693          	li	a3,192
    2ce6:	a0818613          	addi	a2,gp,-1528 # 20000328 <led_array>
    2cea:	4589                	li	a1,2
    2cec:	80050513          	addi	a0,a0,-2048 # 40010800 <__global_pointer$+0x2000fee0>
    2cf0:	b58fe0ef          	jal	ra,1048 <WS2812BSimpleSend>
    2cf4:	0111                	addi	sp,sp,4
    2cf6:	c54fd06f          	j	14a <__riscv_restore_0>

00002cfa <appRunningRoutine>:
    2cfa:	c46fd2ef          	jal	t0,140 <__riscv_save_0>
    2cfe:	20000437          	lui	s0,0x20000
    2d02:	00042783          	lw	a5,0(s0) # 20000000 <_data_vma>
    2d06:	471d                	li	a4,7
    2d08:	00e78863          	beq	a5,a4,2d18 <appRunningRoutine+0x1e>
    2d0c:	4725                	li	a4,9
    2d0e:	00e79863          	bne	a5,a4,2d1e <appRunningRoutine+0x24>
    2d12:	d6dff0ef          	jal	ra,2a7e <painting_routine>
    2d16:	b7f5                	j	2d02 <appRunningRoutine+0x8>
    2d18:	89bff0ef          	jal	ra,25b2 <rv_code_routine>
    2d1c:	b7dd                	j	2d02 <appRunningRoutine+0x8>
    2d1e:	3765                	jal	2cc6 <red_screen>
    2d20:	02dc7537          	lui	a0,0x2dc7
    2d24:	c0050513          	addi	a0,a0,-1024 # 2dc6c00 <_data_lma+0x2dc2ef8>
    2d28:	9adfd0ef          	jal	ra,6d4 <DelaySysTick>
    2d2c:	bfd9                	j	2d02 <appRunningRoutine+0x8>

00002d2e <main>:
    2d2e:	c12fd2ef          	jal	t0,140 <__riscv_save_0>
    2d32:	9b9fd0ef          	jal	ra,6ea <SystemInit>
    2d36:	a23fd0ef          	jal	ra,758 <GPIO_ADCinit>
    2d3a:	fd1fd0ef          	jal	ra,d0a <clear>
    2d3e:	40011537          	lui	a0,0x40011
    2d42:	0c000693          	li	a3,192
    2d46:	a0818613          	addi	a2,gp,-1528 # 20000328 <led_array>
    2d4a:	4589                	li	a1,2
    2d4c:	80050513          	addi	a0,a0,-2048 # 40010800 <__global_pointer$+0x2000fee0>
    2d50:	af8fe0ef          	jal	ra,1048 <WS2812BSimpleSend>
    2d54:	02dc7537          	lui	a0,0x2dc7
    2d58:	c0050513          	addi	a0,a0,-1024 # 2dc6c00 <_data_lma+0x2dc2ef8>
    2d5c:	979fd0ef          	jal	ra,6d4 <DelaySysTick>
    2d60:	b33fd0ef          	jal	ra,892 <i2c_init>
    2d64:	d30fe0ef          	jal	ra,1294 <init_storage>
    2d68:	06400593          	li	a1,100
    2d6c:	3e800513          	li	a0,1000
    2d70:	a34fe0ef          	jal	ra,fa4 <JOY_sound>
    2d74:	03300413          	li	s0,51
    2d78:	000014b7          	lui	s1,0x1
    2d7c:	147d                	addi	s0,s0,-1
    2d7e:	0442                	slli	s0,s0,0x10
    2d80:	8041                	srli	s0,s0,0x10
    2d82:	e41d                	bnez	s0,2db0 <main+0x82>
    2d84:	d34fe0ef          	jal	ra,12b8 <print_status_storage>
    2d88:	f62fe0ef          	jal	ra,14ea <iconShow>
    2d8c:	08954537          	lui	a0,0x8954
    2d90:	40050513          	addi	a0,a0,1024 # 8954400 <_data_lma+0x89506f8>
    2d94:	941fd0ef          	jal	ra,6d4 <DelaySysTick>
    2d98:	200007b7          	lui	a5,0x20000
    2d9c:	0007a583          	lw	a1,0(a5) # 20000000 <_data_vma>
    2da0:	00003537          	lui	a0,0x3
    2da4:	77c50513          	addi	a0,a0,1916 # 377c <colors+0x208>
    2da8:	82bfd0ef          	jal	ra,5d2 <printf>
    2dac:	f4fff0ef          	jal	ra,2cfa <appRunningRoutine>
    2db0:	4595                	li	a1,5
    2db2:	d6048513          	addi	a0,s1,-672 # d60 <ADC_read_smallboard>
    2db6:	fb5fd0ef          	jal	ra,d6a <multiple_ADC_reads>
    2dba:	804fe0ef          	jal	ra,dbe <JOY_check_button>
    2dbe:	57e5                	li	a5,-7
    2dc0:	02f51a63          	bne	a0,a5,2df4 <main+0xc6>
    2dc4:	b3cff0ef          	jal	ra,2100 <erase_all_paint_saves>
    2dc8:	effff0ef          	jal	ra,2cc6 <red_screen>
    2dcc:	00003537          	lui	a0,0x3
    2dd0:	77050513          	addi	a0,a0,1904 # 3770 <colors+0x1fc>
    2dd4:	8bdfd0ef          	jal	ra,690 <puts>
    2dd8:	00004537          	lui	a0,0x4
    2ddc:	11500593          	li	a1,277
    2de0:	bc850513          	addi	a0,a0,-1080 # 3bc8 <colors+0x654>
    2de4:	feefd0ef          	jal	ra,5d2 <printf>
    2de8:	02dc7537          	lui	a0,0x2dc7
    2dec:	c0050513          	addi	a0,a0,-1024 # 2dc6c00 <_data_lma+0x2dc2ef8>
    2df0:	8e5fd0ef          	jal	ra,6d4 <DelaySysTick>
    2df4:	6531                	lui	a0,0xc
    2df6:	b8050513          	addi	a0,a0,-1152 # bb80 <_data_lma+0x7e78>
    2dfa:	8dbfd0ef          	jal	ra,6d4 <DelaySysTick>
    2dfe:	bfbd                	j	2d7c <main+0x4e>

00002e00 <__udivdi3>:
    2e00:	fd410113          	addi	sp,sp,-44
    2e04:	d406                	sw	ra,40(sp)
    2e06:	d222                	sw	s0,36(sp)
    2e08:	d026                	sw	s1,32(sp)
    2e0a:	872a                	mv	a4,a0
    2e0c:	87ae                	mv	a5,a1
    2e0e:	20069163          	bnez	a3,3010 <__udivdi3+0x210>
    2e12:	84b6                	mv	s1,a3
    2e14:	8332                	mv	t1,a2
    2e16:	842a                	mv	s0,a0
    2e18:	0ec5fe63          	bgeu	a1,a2,2f14 <__udivdi3+0x114>
    2e1c:	66c1                	lui	a3,0x10
    2e1e:	82ae                	mv	t0,a1
    2e20:	26d66363          	bltu	a2,a3,3086 <__udivdi3+0x286>
    2e24:	010006b7          	lui	a3,0x1000
    2e28:	48d66763          	bltu	a2,a3,32b6 <__udivdi3+0x4b6>
    2e2c:	01865593          	srli	a1,a2,0x18
    2e30:	44e1                	li	s1,24
    2e32:	00001697          	auipc	a3,0x1
    2e36:	dd668693          	addi	a3,a3,-554 # 3c08 <__clz_tab>
    2e3a:	96ae                	add	a3,a3,a1
    2e3c:	2294                	lbu	a3,0(a3)
    2e3e:	94b6                	add	s1,s1,a3
    2e40:	02000693          	li	a3,32
    2e44:	8e85                	sub	a3,a3,s1
    2e46:	ca99                	beqz	a3,2e5c <__udivdi3+0x5c>
    2e48:	00d797b3          	sll	a5,a5,a3
    2e4c:	009754b3          	srl	s1,a4,s1
    2e50:	00d61333          	sll	t1,a2,a3
    2e54:	00f4e2b3          	or	t0,s1,a5
    2e58:	00d71433          	sll	s0,a4,a3
    2e5c:	01035493          	srli	s1,t1,0x10
    2e60:	85a6                	mv	a1,s1
    2e62:	8516                	mv	a0,t0
    2e64:	c21a                	sw	t1,4(sp)
    2e66:	c016                	sw	t0,0(sp)
    2e68:	b38fd0ef          	jal	ra,1a0 <__umodsi3>
    2e6c:	4312                	lw	t1,4(sp)
    2e6e:	4282                	lw	t0,0(sp)
    2e70:	c62a                	sw	a0,12(sp)
    2e72:	01031793          	slli	a5,t1,0x10
    2e76:	83c1                	srli	a5,a5,0x10
    2e78:	85a6                	mv	a1,s1
    2e7a:	8516                	mv	a0,t0
    2e7c:	c41a                	sw	t1,8(sp)
    2e7e:	c03e                	sw	a5,0(sp)
    2e80:	af4fd0ef          	jal	ra,174 <__udivsi3>
    2e84:	85aa                	mv	a1,a0
    2e86:	c22a                	sw	a0,4(sp)
    2e88:	4502                	lw	a0,0(sp)
    2e8a:	acafd0ef          	jal	ra,154 <__mulsi3>
    2e8e:	4732                	lw	a4,12(sp)
    2e90:	01045793          	srli	a5,s0,0x10
    2e94:	4692                	lw	a3,4(sp)
    2e96:	0742                	slli	a4,a4,0x10
    2e98:	8fd9                	or	a5,a5,a4
    2e9a:	4322                	lw	t1,8(sp)
    2e9c:	00a7fa63          	bgeu	a5,a0,2eb0 <__udivdi3+0xb0>
    2ea0:	979a                	add	a5,a5,t1
    2ea2:	fff68713          	addi	a4,a3,-1
    2ea6:	0067e463          	bltu	a5,t1,2eae <__udivdi3+0xae>
    2eaa:	42a7ec63          	bltu	a5,a0,32e2 <__udivdi3+0x4e2>
    2eae:	86ba                	mv	a3,a4
    2eb0:	8f89                	sub	a5,a5,a0
    2eb2:	85a6                	mv	a1,s1
    2eb4:	853e                	mv	a0,a5
    2eb6:	c636                	sw	a3,12(sp)
    2eb8:	c81a                	sw	t1,16(sp)
    2eba:	c43e                	sw	a5,8(sp)
    2ebc:	ae4fd0ef          	jal	ra,1a0 <__umodsi3>
    2ec0:	47a2                	lw	a5,8(sp)
    2ec2:	85a6                	mv	a1,s1
    2ec4:	c22a                	sw	a0,4(sp)
    2ec6:	853e                	mv	a0,a5
    2ec8:	aacfd0ef          	jal	ra,174 <__udivsi3>
    2ecc:	85aa                	mv	a1,a0
    2ece:	84aa                	mv	s1,a0
    2ed0:	4502                	lw	a0,0(sp)
    2ed2:	0442                	slli	s0,s0,0x10
    2ed4:	8041                	srli	s0,s0,0x10
    2ed6:	a7efd0ef          	jal	ra,154 <__mulsi3>
    2eda:	4292                	lw	t0,4(sp)
    2edc:	46b2                	lw	a3,12(sp)
    2ede:	02c2                	slli	t0,t0,0x10
    2ee0:	0082e433          	or	s0,t0,s0
    2ee4:	00a47c63          	bgeu	s0,a0,2efc <__udivdi3+0xfc>
    2ee8:	4342                	lw	t1,16(sp)
    2eea:	fff48793          	addi	a5,s1,-1
    2eee:	941a                	add	s0,s0,t1
    2ef0:	00646563          	bltu	s0,t1,2efa <__udivdi3+0xfa>
    2ef4:	14f9                	addi	s1,s1,-2
    2ef6:	00a46363          	bltu	s0,a0,2efc <__udivdi3+0xfc>
    2efa:	84be                	mv	s1,a5
    2efc:	01069793          	slli	a5,a3,0x10
    2f00:	0097e533          	or	a0,a5,s1
    2f04:	4681                	li	a3,0
    2f06:	85b6                	mv	a1,a3
    2f08:	50a2                	lw	ra,40(sp)
    2f0a:	5412                	lw	s0,36(sp)
    2f0c:	5482                	lw	s1,32(sp)
    2f0e:	02c10113          	addi	sp,sp,44
    2f12:	8082                	ret
    2f14:	ea11                	bnez	a2,2f28 <__udivdi3+0x128>
    2f16:	c22e                	sw	a1,4(sp)
    2f18:	c02a                	sw	a0,0(sp)
    2f1a:	4581                	li	a1,0
    2f1c:	4505                	li	a0,1
    2f1e:	a56fd0ef          	jal	ra,174 <__udivsi3>
    2f22:	4792                	lw	a5,4(sp)
    2f24:	4702                	lw	a4,0(sp)
    2f26:	832a                	mv	t1,a0
    2f28:	66c1                	lui	a3,0x10
    2f2a:	14d36563          	bltu	t1,a3,3074 <__udivdi3+0x274>
    2f2e:	010006b7          	lui	a3,0x1000
    2f32:	38d36663          	bltu	t1,a3,32be <__udivdi3+0x4be>
    2f36:	01835613          	srli	a2,t1,0x18
    2f3a:	44e1                	li	s1,24
    2f3c:	00001697          	auipc	a3,0x1
    2f40:	ccc68693          	addi	a3,a3,-820 # 3c08 <__clz_tab>
    2f44:	96b2                	add	a3,a3,a2
    2f46:	0006c283          	lbu	t0,0(a3)
    2f4a:	02000613          	li	a2,32
    2f4e:	92a6                	add	t0,t0,s1
    2f50:	40560633          	sub	a2,a2,t0
    2f54:	14061263          	bnez	a2,3098 <__udivdi3+0x298>
    2f58:	01031713          	slli	a4,t1,0x10
    2f5c:	8341                	srli	a4,a4,0x10
    2f5e:	406787b3          	sub	a5,a5,t1
    2f62:	01035493          	srli	s1,t1,0x10
    2f66:	c03a                	sw	a4,0(sp)
    2f68:	4685                	li	a3,1
    2f6a:	85a6                	mv	a1,s1
    2f6c:	853e                	mv	a0,a5
    2f6e:	c836                	sw	a3,16(sp)
    2f70:	c61a                	sw	t1,12(sp)
    2f72:	c23e                	sw	a5,4(sp)
    2f74:	a2cfd0ef          	jal	ra,1a0 <__umodsi3>
    2f78:	4792                	lw	a5,4(sp)
    2f7a:	c42a                	sw	a0,8(sp)
    2f7c:	85a6                	mv	a1,s1
    2f7e:	853e                	mv	a0,a5
    2f80:	9f4fd0ef          	jal	ra,174 <__udivsi3>
    2f84:	4582                	lw	a1,0(sp)
    2f86:	c22a                	sw	a0,4(sp)
    2f88:	9ccfd0ef          	jal	ra,154 <__mulsi3>
    2f8c:	4722                	lw	a4,8(sp)
    2f8e:	01045793          	srli	a5,s0,0x10
    2f92:	4332                	lw	t1,12(sp)
    2f94:	0742                	slli	a4,a4,0x10
    2f96:	8fd9                	or	a5,a5,a4
    2f98:	46c2                	lw	a3,16(sp)
    2f9a:	00a7fb63          	bgeu	a5,a0,2fb0 <__udivdi3+0x1b0>
    2f9e:	4612                	lw	a2,4(sp)
    2fa0:	979a                	add	a5,a5,t1
    2fa2:	fff60713          	addi	a4,a2,-1
    2fa6:	0067e463          	bltu	a5,t1,2fae <__udivdi3+0x1ae>
    2faa:	32a7ef63          	bltu	a5,a0,32e8 <__udivdi3+0x4e8>
    2fae:	c23a                	sw	a4,4(sp)
    2fb0:	8f89                	sub	a5,a5,a0
    2fb2:	85a6                	mv	a1,s1
    2fb4:	853e                	mv	a0,a5
    2fb6:	c836                	sw	a3,16(sp)
    2fb8:	ca1a                	sw	t1,20(sp)
    2fba:	c63e                	sw	a5,12(sp)
    2fbc:	9e4fd0ef          	jal	ra,1a0 <__umodsi3>
    2fc0:	47b2                	lw	a5,12(sp)
    2fc2:	85a6                	mv	a1,s1
    2fc4:	c42a                	sw	a0,8(sp)
    2fc6:	853e                	mv	a0,a5
    2fc8:	9acfd0ef          	jal	ra,174 <__udivsi3>
    2fcc:	4582                	lw	a1,0(sp)
    2fce:	84aa                	mv	s1,a0
    2fd0:	0442                	slli	s0,s0,0x10
    2fd2:	982fd0ef          	jal	ra,154 <__mulsi3>
    2fd6:	42a2                	lw	t0,8(sp)
    2fd8:	8041                	srli	s0,s0,0x10
    2fda:	46c2                	lw	a3,16(sp)
    2fdc:	02c2                	slli	t0,t0,0x10
    2fde:	0082e433          	or	s0,t0,s0
    2fe2:	00a47c63          	bgeu	s0,a0,2ffa <__udivdi3+0x1fa>
    2fe6:	4352                	lw	t1,20(sp)
    2fe8:	fff48793          	addi	a5,s1,-1
    2fec:	941a                	add	s0,s0,t1
    2fee:	00646563          	bltu	s0,t1,2ff8 <__udivdi3+0x1f8>
    2ff2:	14f9                	addi	s1,s1,-2
    2ff4:	00a46363          	bltu	s0,a0,2ffa <__udivdi3+0x1fa>
    2ff8:	84be                	mv	s1,a5
    2ffa:	4792                	lw	a5,4(sp)
    2ffc:	07c2                	slli	a5,a5,0x10
    2ffe:	0097e533          	or	a0,a5,s1
    3002:	85b6                	mv	a1,a3
    3004:	50a2                	lw	ra,40(sp)
    3006:	5412                	lw	s0,36(sp)
    3008:	5482                	lw	s1,32(sp)
    300a:	02c10113          	addi	sp,sp,44
    300e:	8082                	ret
    3010:	04d5e163          	bltu	a1,a3,3052 <__udivdi3+0x252>
    3014:	65c1                	lui	a1,0x10
    3016:	04b6e763          	bltu	a3,a1,3064 <__udivdi3+0x264>
    301a:	010005b7          	lui	a1,0x1000
    301e:	28b6e863          	bltu	a3,a1,32ae <__udivdi3+0x4ae>
    3022:	0186d593          	srli	a1,a3,0x18
    3026:	4361                	li	t1,24
    3028:	00001517          	auipc	a0,0x1
    302c:	be050513          	addi	a0,a0,-1056 # 3c08 <__clz_tab>
    3030:	952e                	add	a0,a0,a1
    3032:	210c                	lbu	a1,0(a0)
    3034:	959a                	add	a1,a1,t1
    3036:	02000313          	li	t1,32
    303a:	40b30333          	sub	t1,t1,a1
    303e:	10031d63          	bnez	t1,3158 <__udivdi3+0x358>
    3042:	28f6e263          	bltu	a3,a5,32c6 <__udivdi3+0x4c6>
    3046:	00c737b3          	sltu	a5,a4,a2
    304a:	0017c513          	xori	a0,a5,1
    304e:	4681                	li	a3,0
    3050:	a019                	j	3056 <__udivdi3+0x256>
    3052:	4681                	li	a3,0
    3054:	4501                	li	a0,0
    3056:	85b6                	mv	a1,a3
    3058:	50a2                	lw	ra,40(sp)
    305a:	5412                	lw	s0,36(sp)
    305c:	5482                	lw	s1,32(sp)
    305e:	02c10113          	addi	sp,sp,44
    3062:	8082                	ret
    3064:	0ff00593          	li	a1,255
    3068:	26d5f263          	bgeu	a1,a3,32cc <__udivdi3+0x4cc>
    306c:	0086d593          	srli	a1,a3,0x8
    3070:	4321                	li	t1,8
    3072:	bf5d                	j	3028 <__udivdi3+0x228>
    3074:	0ff00693          	li	a3,255
    3078:	861a                	mv	a2,t1
    307a:	ec66f1e3          	bgeu	a3,t1,2f3c <__udivdi3+0x13c>
    307e:	00835613          	srli	a2,t1,0x8
    3082:	44a1                	li	s1,8
    3084:	bd65                	j	2f3c <__udivdi3+0x13c>
    3086:	0ff00693          	li	a3,255
    308a:	85b2                	mv	a1,a2
    308c:	dac6f3e3          	bgeu	a3,a2,2e32 <__udivdi3+0x32>
    3090:	00865593          	srli	a1,a2,0x8
    3094:	44a1                	li	s1,8
    3096:	bb71                	j	2e32 <__udivdi3+0x32>
    3098:	00c31333          	sll	t1,t1,a2
    309c:	0057d6b3          	srl	a3,a5,t0
    30a0:	01035493          	srli	s1,t1,0x10
    30a4:	00c797b3          	sll	a5,a5,a2
    30a8:	005752b3          	srl	t0,a4,t0
    30ac:	00c71433          	sll	s0,a4,a2
    30b0:	01031713          	slli	a4,t1,0x10
    30b4:	00f2e7b3          	or	a5,t0,a5
    30b8:	8341                	srli	a4,a4,0x10
    30ba:	85a6                	mv	a1,s1
    30bc:	8536                	mv	a0,a3
    30be:	c23e                	sw	a5,4(sp)
    30c0:	c81a                	sw	t1,16(sp)
    30c2:	c03a                	sw	a4,0(sp)
    30c4:	c436                	sw	a3,8(sp)
    30c6:	8dafd0ef          	jal	ra,1a0 <__umodsi3>
    30ca:	46a2                	lw	a3,8(sp)
    30cc:	c62a                	sw	a0,12(sp)
    30ce:	85a6                	mv	a1,s1
    30d0:	8536                	mv	a0,a3
    30d2:	8a2fd0ef          	jal	ra,174 <__udivsi3>
    30d6:	85aa                	mv	a1,a0
    30d8:	c42a                	sw	a0,8(sp)
    30da:	4502                	lw	a0,0(sp)
    30dc:	878fd0ef          	jal	ra,154 <__mulsi3>
    30e0:	4632                	lw	a2,12(sp)
    30e2:	4792                	lw	a5,4(sp)
    30e4:	46a2                	lw	a3,8(sp)
    30e6:	0642                	slli	a2,a2,0x10
    30e8:	83c1                	srli	a5,a5,0x10
    30ea:	8fd1                	or	a5,a5,a2
    30ec:	4342                	lw	t1,16(sp)
    30ee:	00a7fb63          	bgeu	a5,a0,3104 <__udivdi3+0x304>
    30f2:	979a                	add	a5,a5,t1
    30f4:	fff68713          	addi	a4,a3,-1
    30f8:	1e67e363          	bltu	a5,t1,32de <__udivdi3+0x4de>
    30fc:	1ea7f163          	bgeu	a5,a0,32de <__udivdi3+0x4de>
    3100:	16f9                	addi	a3,a3,-2
    3102:	979a                	add	a5,a5,t1
    3104:	40a78733          	sub	a4,a5,a0
    3108:	85a6                	mv	a1,s1
    310a:	853a                	mv	a0,a4
    310c:	ca36                	sw	a3,20(sp)
    310e:	c81a                	sw	t1,16(sp)
    3110:	c43a                	sw	a4,8(sp)
    3112:	88efd0ef          	jal	ra,1a0 <__umodsi3>
    3116:	4722                	lw	a4,8(sp)
    3118:	c62a                	sw	a0,12(sp)
    311a:	85a6                	mv	a1,s1
    311c:	853a                	mv	a0,a4
    311e:	856fd0ef          	jal	ra,174 <__udivsi3>
    3122:	85aa                	mv	a1,a0
    3124:	c42a                	sw	a0,8(sp)
    3126:	4502                	lw	a0,0(sp)
    3128:	82cfd0ef          	jal	ra,154 <__mulsi3>
    312c:	47b2                	lw	a5,12(sp)
    312e:	8230                	lhu	a2,4(sp)
    3130:	4722                	lw	a4,8(sp)
    3132:	07c2                	slli	a5,a5,0x10
    3134:	8fd1                	or	a5,a5,a2
    3136:	4342                	lw	t1,16(sp)
    3138:	46d2                	lw	a3,20(sp)
    313a:	00a7fb63          	bgeu	a5,a0,3150 <__udivdi3+0x350>
    313e:	979a                	add	a5,a5,t1
    3140:	fff70613          	addi	a2,a4,-1
    3144:	1867e963          	bltu	a5,t1,32d6 <__udivdi3+0x4d6>
    3148:	18a7f763          	bgeu	a5,a0,32d6 <__udivdi3+0x4d6>
    314c:	1779                	addi	a4,a4,-2
    314e:	979a                	add	a5,a5,t1
    3150:	06c2                	slli	a3,a3,0x10
    3152:	8f89                	sub	a5,a5,a0
    3154:	8ed9                	or	a3,a3,a4
    3156:	bd11                	j	2f6a <__udivdi3+0x16a>
    3158:	00b65533          	srl	a0,a2,a1
    315c:	006696b3          	sll	a3,a3,t1
    3160:	8ec9                	or	a3,a3,a0
    3162:	00b753b3          	srl	t2,a4,a1
    3166:	cc3a                	sw	a4,24(sp)
    3168:	00661733          	sll	a4,a2,t1
    316c:	0106d413          	srli	s0,a3,0x10
    3170:	00b7d4b3          	srl	s1,a5,a1
    3174:	c43a                	sw	a4,8(sp)
    3176:	006797b3          	sll	a5,a5,t1
    317a:	01069713          	slli	a4,a3,0x10
    317e:	00f3e7b3          	or	a5,t2,a5
    3182:	8341                	srli	a4,a4,0x10
    3184:	85a2                	mv	a1,s0
    3186:	8526                	mv	a0,s1
    3188:	c03e                	sw	a5,0(sp)
    318a:	ca1a                	sw	t1,20(sp)
    318c:	c836                	sw	a3,16(sp)
    318e:	c23a                	sw	a4,4(sp)
    3190:	810fd0ef          	jal	ra,1a0 <__umodsi3>
    3194:	c62a                	sw	a0,12(sp)
    3196:	85a2                	mv	a1,s0
    3198:	8526                	mv	a0,s1
    319a:	fdbfc0ef          	jal	ra,174 <__udivsi3>
    319e:	85aa                	mv	a1,a0
    31a0:	84aa                	mv	s1,a0
    31a2:	4512                	lw	a0,4(sp)
    31a4:	fb1fc0ef          	jal	ra,154 <__mulsi3>
    31a8:	43b2                	lw	t2,12(sp)
    31aa:	4782                	lw	a5,0(sp)
    31ac:	46c2                	lw	a3,16(sp)
    31ae:	03c2                	slli	t2,t2,0x10
    31b0:	0107d613          	srli	a2,a5,0x10
    31b4:	00c3e633          	or	a2,t2,a2
    31b8:	4352                	lw	t1,20(sp)
    31ba:	4762                	lw	a4,24(sp)
    31bc:	00a67b63          	bgeu	a2,a0,31d2 <__udivdi3+0x3d2>
    31c0:	9636                	add	a2,a2,a3
    31c2:	fff48593          	addi	a1,s1,-1
    31c6:	10d66a63          	bltu	a2,a3,32da <__udivdi3+0x4da>
    31ca:	10a67863          	bgeu	a2,a0,32da <__udivdi3+0x4da>
    31ce:	14f9                	addi	s1,s1,-2
    31d0:	9636                	add	a2,a2,a3
    31d2:	8e09                	sub	a2,a2,a0
    31d4:	85a2                	mv	a1,s0
    31d6:	8532                	mv	a0,a2
    31d8:	cc3a                	sw	a4,24(sp)
    31da:	ca1a                	sw	t1,20(sp)
    31dc:	ce36                	sw	a3,28(sp)
    31de:	c832                	sw	a2,16(sp)
    31e0:	fc1fc0ef          	jal	ra,1a0 <__umodsi3>
    31e4:	4642                	lw	a2,16(sp)
    31e6:	85a2                	mv	a1,s0
    31e8:	c62a                	sw	a0,12(sp)
    31ea:	8532                	mv	a0,a2
    31ec:	f89fc0ef          	jal	ra,174 <__udivsi3>
    31f0:	85aa                	mv	a1,a0
    31f2:	842a                	mv	s0,a0
    31f4:	4512                	lw	a0,4(sp)
    31f6:	f5ffc0ef          	jal	ra,154 <__mulsi3>
    31fa:	42b2                	lw	t0,12(sp)
    31fc:	8030                	lhu	a2,0(sp)
    31fe:	4352                	lw	t1,20(sp)
    3200:	02c2                	slli	t0,t0,0x10
    3202:	00c2e633          	or	a2,t0,a2
    3206:	4762                	lw	a4,24(sp)
    3208:	00a67c63          	bgeu	a2,a0,3220 <__udivdi3+0x420>
    320c:	46f2                	lw	a3,28(sp)
    320e:	fff40593          	addi	a1,s0,-1
    3212:	9636                	add	a2,a2,a3
    3214:	0ad66f63          	bltu	a2,a3,32d2 <__udivdi3+0x4d2>
    3218:	0aa67d63          	bgeu	a2,a0,32d2 <__udivdi3+0x4d2>
    321c:	1479                	addi	s0,s0,-2
    321e:	9636                	add	a2,a2,a3
    3220:	66c1                	lui	a3,0x10
    3222:	fff68293          	addi	t0,a3,-1 # ffff <_data_lma+0xc2f7>
    3226:	46a2                	lw	a3,8(sp)
    3228:	01049793          	slli	a5,s1,0x10
    322c:	8fc1                	or	a5,a5,s0
    322e:	0057f433          	and	s0,a5,t0
    3232:	8e09                	sub	a2,a2,a0
    3234:	0056f2b3          	and	t0,a3,t0
    3238:	c232                	sw	a2,4(sp)
    323a:	0107d393          	srli	t2,a5,0x10
    323e:	0106d493          	srli	s1,a3,0x10
    3242:	8522                	mv	a0,s0
    3244:	8596                	mv	a1,t0
    3246:	f0ffc0ef          	jal	ra,154 <__mulsi3>
    324a:	c02a                	sw	a0,0(sp)
    324c:	85a6                	mv	a1,s1
    324e:	8522                	mv	a0,s0
    3250:	f05fc0ef          	jal	ra,154 <__mulsi3>
    3254:	842a                	mv	s0,a0
    3256:	8596                	mv	a1,t0
    3258:	851e                	mv	a0,t2
    325a:	efbfc0ef          	jal	ra,154 <__mulsi3>
    325e:	82aa                	mv	t0,a0
    3260:	85a6                	mv	a1,s1
    3262:	851e                	mv	a0,t2
    3264:	ef1fc0ef          	jal	ra,154 <__mulsi3>
    3268:	4682                	lw	a3,0(sp)
    326a:	9416                	add	s0,s0,t0
    326c:	82c1                	srli	a3,a3,0x10
    326e:	9436                	add	s0,s0,a3
    3270:	00547463          	bgeu	s0,t0,3278 <__udivdi3+0x478>
    3274:	66c1                	lui	a3,0x10
    3276:	9536                	add	a0,a0,a3
    3278:	01045693          	srli	a3,s0,0x10
    327c:	9536                	add	a0,a0,a3
    327e:	4692                	lw	a3,4(sp)
    3280:	02a6e363          	bltu	a3,a0,32a6 <__udivdi3+0x4a6>
    3284:	00a68563          	beq	a3,a0,328e <__udivdi3+0x48e>
    3288:	853e                	mv	a0,a5
    328a:	4681                	li	a3,0
    328c:	b3e9                	j	3056 <__udivdi3+0x256>
    328e:	6641                	lui	a2,0x10
    3290:	4582                	lw	a1,0(sp)
    3292:	167d                	addi	a2,a2,-1
    3294:	00c476b3          	and	a3,s0,a2
    3298:	06c2                	slli	a3,a3,0x10
    329a:	8e6d                	and	a2,a2,a1
    329c:	00671733          	sll	a4,a4,t1
    32a0:	96b2                	add	a3,a3,a2
    32a2:	fed773e3          	bgeu	a4,a3,3288 <__udivdi3+0x488>
    32a6:	fff78513          	addi	a0,a5,-1
    32aa:	4681                	li	a3,0
    32ac:	b36d                	j	3056 <__udivdi3+0x256>
    32ae:	0106d593          	srli	a1,a3,0x10
    32b2:	4341                	li	t1,16
    32b4:	bb95                	j	3028 <__udivdi3+0x228>
    32b6:	01065593          	srli	a1,a2,0x10
    32ba:	44c1                	li	s1,16
    32bc:	be9d                	j	2e32 <__udivdi3+0x32>
    32be:	01035613          	srli	a2,t1,0x10
    32c2:	44c1                	li	s1,16
    32c4:	b9a5                	j	2f3c <__udivdi3+0x13c>
    32c6:	4681                	li	a3,0
    32c8:	4505                	li	a0,1
    32ca:	b371                	j	3056 <__udivdi3+0x256>
    32cc:	85b6                	mv	a1,a3
    32ce:	4301                	li	t1,0
    32d0:	bba1                	j	3028 <__udivdi3+0x228>
    32d2:	842e                	mv	s0,a1
    32d4:	b7b1                	j	3220 <__udivdi3+0x420>
    32d6:	8732                	mv	a4,a2
    32d8:	bda5                	j	3150 <__udivdi3+0x350>
    32da:	84ae                	mv	s1,a1
    32dc:	bddd                	j	31d2 <__udivdi3+0x3d2>
    32de:	86ba                	mv	a3,a4
    32e0:	b515                	j	3104 <__udivdi3+0x304>
    32e2:	16f9                	addi	a3,a3,-2
    32e4:	979a                	add	a5,a5,t1
    32e6:	b6e9                	j	2eb0 <__udivdi3+0xb0>
    32e8:	ffe60713          	addi	a4,a2,-2 # fffe <_data_lma+0xc2f6>
    32ec:	c23a                	sw	a4,4(sp)
    32ee:	979a                	add	a5,a5,t1
    32f0:	b1c1                	j	2fb0 <__udivdi3+0x1b0>
    32f2:	0000                	unimp
    32f4:	1bc0                	addi	s0,sp,500
    32f6:	0000                	unimp
    32f8:	1a2c                	addi	a1,sp,312
    32fa:	0000                	unimp
    32fc:	1aa8                	addi	a0,sp,376
    32fe:	0000                	unimp
    3300:	1982                	slli	s3,s3,0x20
    3302:	0000                	unimp
    3304:	1a80                	addi	s0,sp,368
    3306:	0000                	unimp
    3308:	1a64                	addi	s1,sp,316
    330a:	0000                	unimp
    330c:	1a3a                	slli	s4,s4,0x2e
    330e:	0000                	unimp
    3310:	1b0c                	addi	a1,sp,432
    3312:	0000                	unimp
    3314:	1b66                	slli	s6,s6,0x39
    3316:	0000                	unimp
    3318:	1b70                	addi	a2,sp,444
    331a:	0000                	unimp
    331c:	1b76                	slli	s6,s6,0x3d
    331e:	0000                	unimp
    3320:	1baa                	slli	s7,s7,0x2a
    3322:	0000                	unimp
    3324:	1bae                	slli	s7,s7,0x2b
    3326:	0000                	unimp
    3328:	1b7c                	addi	a5,sp,444
    332a:	0000                	unimp
    332c:	1b7c                	addi	a5,sp,444
    332e:	0000                	unimp
    3330:	1bb4                	addi	a3,sp,504
    3332:	0000                	unimp
    3334:	1cfe                	slli	s9,s9,0x3f
    3336:	0000                	unimp
    3338:	1ca2                	slli	s9,s9,0x28
    333a:	0000                	unimp
    333c:	1cbc                	addi	a5,sp,632
    333e:	0000                	unimp
    3340:	1cd2                	slli	s9,s9,0x34
    3342:	0000                	unimp
    3344:	1ce8                	addi	a0,sp,636
    3346:	0000                	unimp
    3348:	1982                	slli	s3,s3,0x20
    334a:	0000                	unimp
    334c:	1982                	slli	s3,s3,0x20
    334e:	0000                	unimp
    3350:	1c58                	addi	a4,sp,564
    3352:	0000                	unimp
    3354:	1d74                	addi	a3,sp,700
    3356:	0000                	unimp
    3358:	1d4c                	addi	a1,sp,692
    335a:	0000                	unimp
    335c:	1d42                	slli	s10,s10,0x30
    335e:	0000                	unimp
    3360:	1d60                	addi	s0,sp,700
    3362:	0000                	unimp
    3364:	1d36                	slli	s10,s10,0x2d
    3366:	0000                	unimp
    3368:	1d6a                	slli	s10,s10,0x3a
    336a:	0000                	unimp
    336c:	1d56                	slli	s10,s10,0x35
    336e:	0000                	unimp
    3370:	1dd6                	slli	s11,s11,0x35
    3372:	0000                	unimp
    3374:	1d94                	addi	a3,sp,752
    3376:	0000                	unimp
    3378:	1dc2                	slli	s11,s11,0x30
    337a:	0000                	unimp
    337c:	1dc6                	slli	s11,s11,0x31
    337e:	0000                	unimp
    3380:	1dca                	slli	s11,s11,0x32
    3382:	0000                	unimp
    3384:	1dce                	slli	s11,s11,0x33
    3386:	0000                	unimp
    3388:	1dd2                	slli	s11,s11,0x34
    338a:	0000                	unimp
    338c:	1e24                	addi	s1,sp,824
    338e:	0000                	unimp
    3390:	1e28                	addi	a0,sp,824
    3392:	0000                	unimp
    3394:	1e2c                	addi	a1,sp,824
    3396:	0000                	unimp
    3398:	1e30                	addi	a2,sp,824
    339a:	0000                	unimp
    339c:	1e34                	addi	a3,sp,824
    339e:	0000                	unimp
    33a0:	1e38                	addi	a4,sp,824
    33a2:	0000                	unimp
    33a4:	1df4                	addi	a3,sp,764
    33a6:	0000                	unimp
    33a8:	1e10                	addi	a2,sp,816
    33aa:	0000                	unimp
    33ac:	1e14                	addi	a3,sp,816
    33ae:	0000                	unimp
    33b0:	1e18                	addi	a4,sp,816
    33b2:	0000                	unimp
    33b4:	1e1c                	addi	a5,sp,816
    33b6:	0000                	unimp
    33b8:	1e20                	addi	s0,sp,824
	...

000033bc <CSWTCH.132>:
    33bc:	0708 f7ff f9f8 0901                         ........

000033c4 <CSWTCH.133>:
    33c4:	0126 014a 015d 0188 01b8 01ee 020b 0000     &.J.]...........

000033d4 <buttons>:
    33d4:	0082 0000 008c 0000 0096 0000 00a2 0000     ................
    33e4:	00ab 0000 00b5 0000 00c0 0000 00ca 0000     ................
    33f4:	00d5 0000 00e0 0000 00eb 0000 00f6 0000     ................
    3404:	0102 0000 010f 0000 011b 0000 0128 0000     ............(...
    3414:	0135 0000 0144 0000 0154 0000 0164 0000     5...D...T...d...
    3424:	0174 0000 0187 0000 019a 0000 01af 0000     t...............
    3434:	01c5 0000 01dd 0000 01f8 0000 0215 0000     ................
    3444:	0235 0000 0258 0000 027f 0000 02ab 0000     5...X...........
    3454:	0082 0000 008c 0000 0096 0000 00a2 0000     ................
    3464:	00ac 0000 00b5 0000 00c0 0000 00ca 0000     ................
    3474:	00d5 0000 00e0 0000 00eb 0000 00f6 0000     ................
    3484:	0102 0000 010f 0000 011b 0000 0128 0000     ............(...
    3494:	0135 0000 0144 0000 0154 0000 0164 0000     5...D...T...d...
    34a4:	0175 0000 0187 0000 019a 0000 01b0 0000     u...............
    34b4:	01c5 0000 01de 0000 01f8 0000 0215 0000     ................
    34c4:	0235 0000 0258 0000 027f 0000 02ab 0000     5...X...........
    34d4:	6150 6567 2520 2064 7369 6e20 746f 7520     Page %d is not u
    34e4:	6573 0a64 0000 0000 6553 656c 7463 6465     sed.....Selected
    34f4:	7020 6761 2065 6425 000a 0000 6150 6e69      page %d....Pain
    3504:	2074 6f6c 6461 0000 7845 7469 4c20 616f     t load..Exit Loa
    3514:	6964 676e 0000 0000 6150 6567 2520 2064     ding....Page %d 
    3524:	6c61 6572 6461 2079 7375 6465 000a 0000     already used....
    3534:	6150 6e69 2074 6173 6576 0064 7845 7469     Paint saved.Exit
    3544:	5320 7661 6e69 0067 6553 656c 7463 6465      Saving.Selected
    3554:	6320 6c6f 726f 203a 3a52 6425 4720 253a      color: R:%d G:%
    3564:	2064 3a42 6425 000a                         d B:%d..

0000356c <color_savefile_empty>:
    356c:	0064 0000                                   d...

00003570 <color_savefile_exist>:
    3570:	0000 0064                                   ..d.

00003574 <colors>:
    3574:	030f 1d35 2c03 0032 2207 0039 3613 0700     ..5..,2.."9..6..
    3584:	0039 2206 0037 0000 012a 3d6c 5f01 0350     9.."7...*.l=._P.
    3594:	490e 0367 6b24 1204 0e6b 3e10 1e6a 231d     .Ig.$k..k..>j..#
    35a4:	0937 55a6 930e 055a 7120 0593 a13c 2712     7..U..Z. q..<..'
    35b4:	1695 6820 37a8 3c36 1252 7ad6 c705 0071     .. h.76<R..z..q.
    35c4:	9439 02c8 d256 3518 30d8 8733 53cf 5f53     9...V..5.03..SS_
    35d4:	196b a1ff ed01 0294 b74a 01f9 fd6d 4a27     k.......J...m.'J
    35e4:	44ff a94c 79fc 8773 3e79 affb f42a 21b7     .DL..ys.y>..*..!
    35f4:	c56b 2cf9 ff80 6441 56fd b065 99fe a392     k..,..Ad.Ve.....
    3604:	689f bcfa f65c 54c5 d48a 4ff6 fe9d 8c70     .h..\..T...O..p.
    3614:	81fc c787 b8ff bdb7 a7bf d4ff ff97 90fe     ................
    3624:	de8a 93fe ffc3 b19e b1ff d6b2 d3fc d9d4     ................
    3634:	6f43 6f6c 2072 6170 656c 7474 2065 6964     Color palette di
    3644:	7073 616c 6579 0064 6150 6567 6920 2073     splayed.Page is 
    3654:	6f6e 2077 7473 7461 7375 203a 6425 000a     now status: %d..
    3664:	6c41 206c 6170 6e69 2074 6173 6576 2073     All paint saves 
    3674:	7473 7461 7375 6520 6172 6573 0064 0000     status erased...
    3684:	7245 7361 2065 6170 6e69 2074 6572 7573     Erase paint resu
    3694:	746c 203a 6425 000a 6349 6e6f 2520 2064     lt: %d..Icon %d 
    36a4:	6f6e 2074 6f66 6e75 0a64 0000 6944 7073     not found...Disp
    36b4:	616c 6979 676e 6920 6f63 206e 6425 000a     laying icon %d..
    36c4:	7453 726f 6761 2065 6e69 7469 6169 696c     Storage initiali
    36d4:	657a 0064 7453 726f 6761 2065 6c61 6572     zed.Storage alre
    36e4:	6461 2079 6e69 7469 6169 696c 657a 0064     ady initialized.
    36f4:	4c49 3030 3030 3130 0000 0000 6f4c 6461     IL000001....Load
    3704:	6e69 2067 6170 6e69 5f74 6f6e 2520 2064     ing paint_no %d 
    3714:	7266 6d6f 7020 6761 2065 6425 202c 7369     from page %d, is
    3724:	695f 6f63 3a6e 2520 0a64 0000 6150 6e69     _icon: %d...Pain
    3734:	2074 6425 6e20 746f 6620 756f 646e 000a     t %d not found..
    3744:	6f4c 6461 7020 6961 746e 7220 7365 6c75     Load paint resul
    3754:	3a74 2520 0a64 0000 6150 6e69 2074 6425     t: %d...Paint %d
    3764:	6c20 616f 6564 0a64 0000 0000 6150 6e69      loaded.....Pain
    3774:	2074 6572 6573 0074 6553 656c 7463 4120     t reset.Select A
    3784:	7070 203a 6425 000a 7075 6570 2072 4441     pp: %d..upper AD
    3794:	3a43 2520 0a64 0000 6f6c 6577 2072 4441     C: %d...lower AD
    37a4:	3a43 2520 0a64 0000 4f46 4552 5247 554f     C: %d...FOREGROU
    37b4:	444e 0000 4142 4b43 5247 554f 444e 0000     ND..BACKGROUND..
    37c4:	4c43 4145 4752 4f52 4e55 0044 6e45 6574     CLEARGROUND.Ente
    37d4:	2072 6170 6e69 2074 6f6c 6461 6e69 2067     r paint loading 
    37e4:	6373 6572 6e65 0021 7845 7469 7020 6961     screen!.Exit pai
    37f4:	746e 6c20 616f 6964 676e 7320 7263 6565     nt loading scree
    3804:	216e 0000 7845 7469 7020 6961 746e 6d20     n!..Exit paint m
    3814:	646f 2c65 6520 746e 7265 6e69 2067 6173     ode, entering sa
    3824:	6576 0000 7845 7469 7020 6961 746e 5320     ve..Exit paint S
    3834:	7661 6e69 2067 6373 6572 6e65 0021 0000     aving screen!...
    3844:	6143 766e 7361 255b 5d64 7320 7465 7420     Canvas[%d] set t
    3854:	206f 7325 6c20 7961 7265 000a 6143 766e     o %s layer..Canv
    3864:	7361 6320 6c6f 726f 7320 7465 7420 206f     as color set to 
    3874:	3a52 6425 4720 253a 2064 3a42 6425 000a     R:%d G:%d B:%d..
    3884:	7453 7461 7375 7320 6f74 6172 6567 6420     Status storage d
    3894:	7461 3a61 0000 0000 2520 3a64 0020 0000     ata:.... %d: ...
    38a4:	2020 6325 0020 0000 6425 0020 2020 2020       %c ...%d .    
    38b4:	0000 0000 7453 726f 6761 2065 6572 6573     ....Storage rese
    38c4:	0074 0000 7572 206e 6568 6572 0000 0000     t...run here....
    38d4:	504f 203a 6425 7c20 4c20 6e69 3a65 2520     OP: %d | Line: %
    38e4:	2c64 6320 646f 3a65 2520 2c64 7620 7261     d, code: %d, var
    38f4:	203a 6425 000a 0000 6e65 6574 2072 6f6c     : %d....enter lo
    3904:	706f 0000 6f4c 6461 5020 6961 746e 2520     op..Load Paint %
    3914:	0a64 0000 2d2d 2d2d 4a2d 6d75 3170 7420     d...-----Jump1 t
    3924:	206f 696c 656e 2520 0a64 0000 2d2d 2d2d     o line %d...----
    3934:	4a2d 6d75 3270 7420 206f 696c 656e 2520     -Jump2 to line %
    3944:	0a64 0000 2d2d 2d2d 4a2d 6d75 3370 7420     d...-----Jump3 t
    3954:	206f 696c 656e 2520 0a64 0000 2d2d 2d2d     o line %d...----
    3964:	4a2d 6d75 3470 7420 206f 696c 656e 2520     -Jump4 to line %
    3974:	0a64 0000 4e45 2044 704f 6f43 6564 0000     d...END OpCode..
    3984:	6f4d 6976 676e 4720 6f72 7075 2d20 4c20     Moving Group - L
    3994:	6e69 2065 6f63 6564 7220 6e61 2520 2064     ine code ran %d 
    39a4:	207c 6548 6461 6e20 6d75 203a 6425 000a     | Head num: %d..
    39b4:	7242 6165 206b 6874 2065 6f6c 706f 0000     Break the loop..
    39c4:	6147 656d 5320 6174 7472 0000 6e45 6574     Game Start..Ente
    39d4:	2072 6f43 6564 6c20 616f 6964 676e 7320     r Code loading s
    39e4:	7263 6565 216e 0000 7845 7469 4320 646f     creen!..Exit Cod
    39f4:	2065 6f6c 6461 6e69 2067 6373 6572 6e65     e loading screen
    3a04:	0021 0000 7845 7469 4320 646f 6e69 2067     !...Exit Coding 
    3a14:	6f6d 6564 202c 6e65 6574 6972 676e 7320     mode, entering s
    3a24:	7661 0065 7845 7469 4320 646f 2065 6173     ave.Exit Code sa
    3a34:	6976 676e 7320 7263 6565 216e 0000 0000     ving screen!....
    3a44:	6f43 6964 676e 7720 726f 736b 6170 6563     Coding workspace
    3a54:	0000 0000 7552 206e 6552 7573 746c 0000     ....Run Result..
    3a64:	6953 756d 616c 6974 6e6f 7720 726f 736b     Simulation works
    3a74:	6170 6563 0000 0000 7552 206e 7250 676f     pace....Run Prog
    3a84:	6172 006d 6c43 6165 0072 0000 7845 7469     ram.Clear...Exit
    3a94:	7020 6961 746e 6d20 646f 2c65 6520 746e      paint mode, ent
    3aa4:	7265 6e69 2067 6f63 6964 676e 0000 0000     ering coding....
    3ab4:	7355 7265 6920 706e 7475 203a 6425 000a     User input: %d..
    3ac4:	6143 766e 7361 255b 5d64 7320 7465 7420     Canvas[%d] set t
    3ad4:	206f 3a52 6425 4720 253a 2064 3a42 6425     o R:%d G:%d B:%d
    3ae4:	000a 0000 6853 776f 5020 6761 2065 6425     ....Show Page %d
    3af4:	7c20 0020 704f 6f63 6564 2520 2064 6c61      | .Opcode %d al
    3b04:	6572 6461 2079 7375 6465 202c 766f 7265     ready used, over
    3b14:	7277 7469 6e69 0a67 0000 0000 6153 6576     writing.....Save
    3b24:	4f20 6370 646f 2065 6572 7573 746c 203a      Opcode result: 
    3b34:	6425 000a 704f 6f63 6564 2520 2064 6173     %d..Opcode %d sa
    3b44:	6576 0a64 0000 0000 6e49 6176 696c 2064     ved.....Invalid 
    3b54:	6170 6e69 2074 756e 626d 7265 2520 0a64     paint number %d.
    3b64:	0000 0000 6150 6e69 2074 6425 6120 726c     ....Paint %d alr
    3b74:	6165 7964 7520 6573 2c64 6f20 6576 7772     eady used, overw
    3b84:	6972 6974 676e 000a 6153 6576 7020 6961     riting..Save pai
    3b94:	746e 7220 7365 6c75 3a74 2520 0a64 0000     nt result: %d...
    3ba4:	6150 6e69 2074 6425 7320 7661 6465 000a     Paint %d saved..
    3bb4:	6e49 6176 696c 2064 7473 7461 7375 2520     Invalid status %
    3bc4:	0a64 0000 4544 5542 3a47 2520 0a64 0000     d...DEBUG: %d...
    3bd4:	6e49 6176 696c 2064 6170 6567 6e20 6d75     Invalid page num
    3be4:	6562 2072 6425 000a 6f43 6964 676e 7720     ber %d..Coding w
    3bf4:	726f 736b 6170 6563 5020 6761 2065 6425     orkspace Page %d
    3c04:	000a 0000                                   ....

00003c08 <__clz_tab>:
    3c08:	0100 0202 0303 0303 0404 0404 0404 0404     ................
    3c18:	0505 0505 0505 0505 0505 0505 0505 0505     ................
    3c28:	0606 0606 0606 0606 0606 0606 0606 0606     ................
    3c38:	0606 0606 0606 0606 0606 0606 0606 0606     ................
    3c48:	0707 0707 0707 0707 0707 0707 0707 0707     ................
    3c58:	0707 0707 0707 0707 0707 0707 0707 0707     ................
    3c68:	0707 0707 0707 0707 0707 0707 0707 0707     ................
    3c78:	0707 0707 0707 0707 0707 0707 0707 0707     ................
    3c88:	0808 0808 0808 0808 0808 0808 0808 0808     ................
    3c98:	0808 0808 0808 0808 0808 0808 0808 0808     ................
    3ca8:	0808 0808 0808 0808 0808 0808 0808 0808     ................
    3cb8:	0808 0808 0808 0808 0808 0808 0808 0808     ................
    3cc8:	0808 0808 0808 0808 0808 0808 0808 0808     ................
    3cd8:	0808 0808 0808 0808 0808 0808 0808 0808     ................
    3ce8:	0808 0808 0808 0808 0808 0808 0808 0808     ................
    3cf8:	0808 0808 0808 0808 0808 0808 0808 0808     ................
